

Microchip Technology PIC18 LITE Macro Assembler V1.37 build -260352376 
                                                                                               Wed May  4 13:25:42 2016

Microchip Technology Omniscient Code Generator v1.37 (Free mode) build 201603110536
     1                           	processor	18F14K50
     2                           	fnconf	rparam,??,?,0
     3                           	opt	pw 120
     4                           	opt	lm
     5                           	psect	idataBANK0,global,class=CODE,delta=1
     6                           	psect	smallconst,global,reloc=2,class=SMALLCONST,delta=1
     7                           	psect	cinit,global,reloc=2,class=CODE,delta=1
     8                           	psect	bssCOMRAM,global,class=COMRAM,space=1,delta=1
     9                           	psect	bssBANK0,global,class=BANK0,space=1,delta=1
    10                           	psect	dataBANK0,global,class=BANK0,space=1,delta=1
    11                           	psect	cstackBANK0,global,class=BANK0,space=1,delta=1
    12                           	psect	cstackCOMRAM,global,class=COMRAM,space=1,delta=1
    13                           	psect	text0,global,reloc=2,class=CODE,delta=1
    14                           	psect	text1,global,reloc=2,class=CODE,delta=1
    15                           	psect	text2,global,reloc=2,class=CODE,delta=1
    16                           	psect	text3,global,reloc=2,class=CODE,delta=1
    17                           	psect	text4,global,reloc=2,class=CODE,delta=1
    18                           	psect	text5,global,reloc=2,class=CODE,delta=1
    19                           	psect	text6,global,reloc=2,class=CODE,delta=1
    20                           	psect	text7,global,reloc=2,class=CODE,delta=1
    21                           	psect	text8,global,reloc=2,class=CODE,delta=1
    22                           	psect	text9,global,reloc=2,class=CODE,delta=1
    23                           	psect	intcode,global,reloc=2,class=CODE,delta=1
    24                           	psect	text11,global,reloc=2,class=CODE,delta=1
    25                           	psect	text12,global,reloc=2,class=CODE,delta=1
    26                           	psect	text13,global,reloc=2,class=CODE,delta=1
    27                           	psect	text14,global,reloc=2,class=CODE,delta=1
    28                           	psect	text15,global,reloc=2,class=CODE,delta=1
    29                           	psect	text16,global,reloc=2,class=CODE,delta=1
    30                           	psect	text17,global,reloc=2,class=CODE,delta=1
    31                           	psect	text18,global,reloc=2,class=CODE,delta=1
    32                           	psect	text19,global,reloc=2,class=CODE,delta=1
    33                           	psect	text20,global,reloc=2,class=CODE,delta=1
    34                           	psect	text21,global,reloc=2,class=CODE,delta=1
    35                           	psect	text22,global,reloc=2,class=CODE,delta=1
    36                           	psect	text23,global,reloc=2,class=CODE,delta=1
    37                           	psect	text24,global,reloc=2,class=CODE,delta=1
    38                           	psect	text25,global,reloc=2,class=CODE,delta=1
    39                           	psect	text26,global,reloc=2,class=CODE,delta=1
    40                           	psect	text27,global,reloc=2,class=CODE,delta=1
    41                           	psect	text28,global,reloc=2,class=CODE,delta=1
    42                           	psect	text29,global,reloc=2,class=CODE,delta=1
    43                           	psect	text30,global,reloc=2,class=CODE,delta=1
    44                           	psect	text31,global,reloc=2,class=CODE,delta=1
    45                           	psect	text32,global,reloc=2,class=CODE,delta=1
    46                           	psect	text33,global,reloc=2,class=CODE,delta=1
    47                           	psect	text34,global,reloc=2,class=CODE,delta=1
    48                           	psect	text35,global,reloc=2,class=CODE,delta=1
    49                           	psect	text36,global,reloc=2,class=CODE,delta=1
    50                           	psect	text37,global,reloc=2,class=CODE,delta=1
    51                           	psect	text38,global,reloc=2,class=CODE,delta=1
    52                           	psect	text39,global,reloc=2,class=CODE,delta=1
    53                           	psect	text40,global,reloc=2,class=CODE,delta=1
    54                           	psect	text41,global,reloc=2,class=CODE,delta=1
    55                           	psect	text42,global,reloc=2,class=CODE,delta=1
    56                           	psect	text43,global,reloc=2,class=CODE,delta=1
    57                           	psect	intsave_regs,global,class=BIGRAM,space=1,delta=1
    58                           	psect	text44,global,reloc=2,class=CODE,delta=1
    59                           	psect	rparam,global,class=COMRAM,space=1,delta=1
    60                           	psect	temp,global,ovrld,common,class=COMRAM,space=1,delta=1
    61                           	dabs	1,0x220,8,_SetupPkt
    62                           	dabs	1,0x200,32,_BDT
    63                           	dabs	1,0x228,8,_CtrlTrfData
    64                           	dabs	1,0x240,8,_inputReport
    65                           	dabs	1,0x248,8,_outputReport
    66  0000                     
    67                           	psect	idataBANK0
    68  0020F6                     __pidataBANK0:
    69                           	opt stack 0
    70                           
    71                           ;initializer for _keyCode
    72  0020F6  24                 	db	36
    73  0020F7  25                 	db	37
    74  0020F8  26                 	db	38
    75  0020F9  21                 	db	33
    76  0020FA  22                 	db	34
    77  0020FB  23                 	db	35
    78  0020FC  1E                 	db	30
    79  0020FD  1F                 	db	31
    80  0020FE  20                 	db	32
    81  0020FF  27                 	db	39
    82  002100  2A                 	db	42
    83  002101  28                 	db	40
    84                           
    85                           ;initializer for _shiftedKeyCode
    86  002102  1B                 	db	27
    87  002103  06                 	db	6
    88  002104  19                 	db	25
    89  002105  21                 	db	33
    90  002106  22                 	db	34
    91  002107  23                 	db	35
    92  002108  1E                 	db	30
    93  002109  1F                 	db	31
    94  00210A  20                 	db	32
    95  00210B  27                 	db	39
    96  00210C  2A                 	db	42
    97  00210D  28                 	db	40
    98                           
    99                           ;initializer for _shiftedKeyModifire
   100  00210E  08                 	db	8
   101  00210F  08                 	db	8
   102  002110  08                 	db	8
   103  002111  00                 	db	0
   104  002112  00                 	db	0
   105  002113  00                 	db	0
   106  002114  00                 	db	0
   107  002115  00                 	db	0
   108  002116  00                 	db	0
   109  002117  00                 	db	0
   110  002118  00                 	db	0
   111  002119  00                 	db	0
   112                           
   113                           	psect	smallconst
   114  000300                     __psmallconst:
   115                           	opt stack 0
   116  000300  00                 	db	0
   117  000301                     _USB_SD_Ptr:
   118                           	opt stack 0
   119  000301  CF                 	db	low _sd000
   120  000302  03                 	db	high _sd000
   121  000303  48                 	db	low _sd001
   122  000304  03                 	db	high _sd001
   123  000305  A5                 	db	low _sd002
   124  000306  03                 	db	high _sd002
   125  000307                     __end_of_USB_SD_Ptr:
   126                           	opt stack 0
   127  000307                     _USB_CD_Ptr:
   128                           	opt stack 0
   129  000307  7C                 	db	low _configDescriptor1
   130  000308  03                 	db	high _configDescriptor1
   131  000309                     __end_of_USB_CD_Ptr:
   132                           	opt stack 0
   133  000309                     _hid_rpt01:
   134                           	opt stack 0
   135  000309  05                 	db	5
   136  00030A  01                 	db	1
   137  00030B  09                 	db	9
   138  00030C  06                 	db	6
   139  00030D  A1                 	db	161
   140  00030E  01                 	db	1
   141  00030F  05                 	db	5
   142  000310  07                 	db	7
   143  000311  19                 	db	25
   144  000312  E0                 	db	224
   145  000313  29                 	db	41
   146  000314  E7                 	db	231
   147  000315  15                 	db	21
   148  000316  00                 	db	0
   149  000317  25                 	db	37
   150  000318  01                 	db	1
   151  000319  75                 	db	117
   152  00031A  01                 	db	1
   153  00031B  95                 	db	149
   154  00031C  08                 	db	8
   155  00031D  81                 	db	129
   156  00031E  02                 	db	2
   157  00031F  95                 	db	149
   158  000320  01                 	db	1
   159  000321  75                 	db	117
   160  000322  08                 	db	8
   161  000323  81                 	db	129
   162  000324  03                 	db	3
   163  000325  95                 	db	149
   164  000326  05                 	db	5
   165  000327  75                 	db	117
   166  000328  01                 	db	1
   167  000329  05                 	db	5
   168  00032A  08                 	db	8
   169  00032B  19                 	db	25
   170  00032C  01                 	db	1
   171  00032D  29                 	db	41
   172  00032E  05                 	db	5
   173  00032F  91                 	db	145
   174  000330  02                 	db	2
   175  000331  95                 	db	149
   176  000332  01                 	db	1
   177  000333  75                 	db	117
   178  000334  03                 	db	3
   179  000335  91                 	db	145
   180  000336  03                 	db	3
   181  000337  95                 	db	149
   182  000338  06                 	db	6
   183  000339  75                 	db	117
   184  00033A  08                 	db	8
   185  00033B  15                 	db	21
   186  00033C  00                 	db	0
   187  00033D  25                 	db	37
   188  00033E  65                 	db	101
   189  00033F  05                 	db	5
   190  000340  07                 	db	7
   191  000341  19                 	db	25
   192  000342  00                 	db	0
   193  000343  29                 	db	41
   194  000344  65                 	db	101
   195  000345  81                 	db	129
   196  000346  00                 	db	0
   197  000347  C0                 	db	192
   198  000348                     __end_of_hid_rpt01:
   199                           	opt stack 0
   200  000348                     _sd001:
   201                           	opt stack 0
   202  000348  34                 	db	52
   203  000349  03                 	db	3
   204  00034A  004D               	dw	77
   205  00034C  0069               	dw	105
   206  00034E  0063               	dw	99
   207  000350  0072               	dw	114
   208  000352  006F               	dw	111
   209  000354  0063               	dw	99
   210  000356  0068               	dw	104
   211  000358  0069               	dw	105
   212  00035A  0070               	dw	112
   213  00035C  0020               	dw	32
   214  00035E  0054               	dw	84
   215  000360  0065               	dw	101
   216  000362  0063               	dw	99
   217  000364  0068               	dw	104
   218  000366  006E               	dw	110
   219  000368  006F               	dw	111
   220  00036A  006C               	dw	108
   221  00036C  006F               	dw	111
   222  00036E  0067               	dw	103
   223  000370  0079               	dw	121
   224  000372  0020               	dw	32
   225  000374  0049               	dw	73
   226  000376  006E               	dw	110
   227  000378  0063               	dw	99
   228  00037A  002E               	dw	46
   229  00037C                     __end_of_sd001:
   230                           	opt stack 0
   231  00037C                     _configDescriptor1:
   232                           	opt stack 0
   233  00037C  09                 	db	9
   234  00037D  02                 	db	2
   235  00037E  29                 	db	41
   236  00037F  00                 	db	0
   237  000380  01                 	db	1
   238  000381  01                 	db	1
   239  000382  00                 	db	0
   240  000383  C0                 	db	192
   241  000384  32                 	db	50
   242  000385  09                 	db	9
   243  000386  04                 	db	4
   244  000387  00                 	db	0
   245  000388  00                 	db	0
   246  000389  02                 	db	2
   247  00038A  03                 	db	3
   248  00038B  01                 	db	1
   249  00038C  01                 	db	1
   250  00038D  00                 	db	0
   251  00038E  09                 	db	9
   252  00038F  21                 	db	33
   253  000390  11                 	db	17
   254  000391  01                 	db	1
   255  000392  00                 	db	0
   256  000393  01                 	db	1
   257  000394  22                 	db	34
   258  000395  3F                 	db	63
   259  000396  00                 	db	0
   260  000397  07                 	db	7
   261  000398  05                 	db	5
   262  000399  81                 	db	129
   263  00039A  03                 	db	3
   264  00039B  08                 	db	8
   265  00039C  00                 	db	0
   266  00039D  01                 	db	1
   267  00039E  07                 	db	7
   268  00039F  05                 	db	5
   269  0003A0  01                 	db	1
   270  0003A1  03                 	db	3
   271  0003A2  08                 	db	8
   272  0003A3  00                 	db	0
   273  0003A4  01                 	db	1
   274  0003A5                     __end_of_configDescriptor1:
   275                           	opt stack 0
   276  0003A5                     _sd002:
   277                           	opt stack 0
   278  0003A5  18                 	db	24
   279  0003A6  03                 	db	3
   280  0003A7  004D               	dw	77
   281  0003A9  0079               	dw	121
   282  0003AB  0020               	dw	32
   283  0003AD  004B               	dw	75
   284  0003AF  0065               	dw	101
   285  0003B1  0079               	dw	121
   286  0003B3  0062               	dw	98
   287  0003B5  006F               	dw	111
   288  0003B7  0061               	dw	97
   289  0003B9  0072               	dw	114
   290  0003BB  0064               	dw	100
   291  0003BD                     __end_of_sd002:
   292                           	opt stack 0
   293  0003BD                     _device_dsc:
   294                           	opt stack 0
   295  0003BD  12                 	db	18
   296  0003BE  01                 	db	1
   297  0003BF  0200               	dw	512
   298  0003C1  00                 	db	0
   299  0003C2  00                 	db	0
   300  0003C3  00                 	db	0
   301  0003C4  08                 	db	8
   302  0003C5  04D8               	dw	1240
   303  0003C7  0055               	dw	85
   304  0003C9  0001               	dw	1
   305  0003CB  01                 	db	1
   306  0003CC  02                 	db	2
   307  0003CD  00                 	db	0
   308  0003CE  01                 	db	1
   309  0003CF                     __end_of_device_dsc:
   310                           	opt stack 0
   311  0003CF                     _sd000:
   312                           	opt stack 0
   313  0003CF  04                 	db	4
   314  0003D0  03                 	db	3
   315  0003D1  0409               	dw	1033
   316  0003D3                     __end_of_sd000:
   317                           	opt stack 0
   318  0000                     _UADDR	set	3932
   319  0000                     _UEIE	set	3931
   320  0000                     _UEIR	set	3935
   321  0000                     _UEP0bits	set	3923
   322  0000                     _UEP0	set	3923
   323  0000                     _UEP1	set	3924
   324  0000                     _ANSEL	set	3966
   325  0000                     _ANSELH	set	3967
   326  0000                     _INTCONbits	set	4082
   327  0000                     _IPR2bits	set	4002
   328  0000                     _PIE2bits	set	4000
   329  0000                     _PIR2bits	set	4001
   330  0000                     _PORTAbits	set	3968
   331  0000                     _PORTBbits	set	3969
   332  0000                     _PORTCbits	set	3970
   333  0000                     _RCONbits	set	4048
   334  0000                     _TRISB	set	3987
   335  0000                     _TRISC	set	3988
   336  0000                     _UCFG	set	3937
   337  0000                     _UCON	set	3940
   338  0000                     _UCONbits	set	3940
   339  0000                     _UIE	set	3936
   340  0000                     _UIEbits	set	3936
   341  0000                     _UIR	set	3938
   342  0000                     _UIRbits	set	3938
   343  0000                     _USTAT	set	3939
   344  0000                     
   345                           ; #config settings
   346  0003D3  00                 	db	0	; dummy byte at the end
   347  0000                     
   348                           	psect	cinit
   349  001EA6                     __pcinit:
   350                           	opt stack 0
   351  001EA6                     start_initialization:
   352                           	opt stack 0
   353  001EA6                     __initialization:
   354                           	opt stack 0
   355                           
   356                           ; Clear objects allocated to BANK0 (47 bytes)
   357  001EA6  EE00  F060         	lfsr	0,__pbssBANK0
   358  001EAA  0E2F               	movlw	47
   359  001EAC                     clear_0:
   360  001EAC  6AEE               	clrf	postinc0,c
   361  001EAE  06E8               	decf	wreg,f,c
   362  001EB0  E1FD               	bnz	clear_0
   363                           
   364                           ; Clear objects allocated to COMRAM (42 bytes)
   365  001EB2  EE00  F001         	lfsr	0,__pbssCOMRAM
   366  001EB6  0E2A               	movlw	42
   367  001EB8                     clear_1:
   368  001EB8  6AEE               	clrf	postinc0,c
   369  001EBA  06E8               	decf	wreg,f,c
   370  001EBC  E1FD               	bnz	clear_1
   371                           
   372                           ; Initialize objects allocated to BANK0 (36 bytes)
   373                           ; load TBLPTR registers with __pidataBANK0
   374  001EBE  0EF6               	movlw	low __pidataBANK0
   375  001EC0  6EF6               	movwf	tblptrl,c
   376  001EC2  0E20               	movlw	high __pidataBANK0
   377  001EC4  6EF7               	movwf	tblptrh,c
   378  001EC6  0E00               	movlw	low (__pidataBANK0 shr (0+16))
   379  001EC8  6EF8               	movwf	tblptru,c
   380  001ECA  EE00  F08F         	lfsr	0,__pdataBANK0
   381  001ECE  EE10 F024          	lfsr	1,36
   382  001ED2                     copy_data0:
   383  001ED2  0009               	tblrd		*+
   384  001ED4  CFF5 FFEE          	movff	tablat,postinc0
   385  001ED8  50E5               	movf	postdec1,w,c
   386  001EDA  50E1               	movf	fsr1l,w,c
   387  001EDC  E1FA               	bnz	copy_data0
   388  001EDE                     end_of_initialization:
   389                           	opt stack 0
   390  001EDE                     __end_of__initialization:
   391                           	opt stack 0
   392  001EDE  9055               	bcf	int$flags,0,c	;clear compiler interrupt flag (level 1)
   393  001EE0  9255               	bcf	int$flags,1,c	;clear compiler interrupt flag (level 2)
   394  001EE2  0E00               	movlw	low (__Lmediumconst shr (0+16))
   395  001EE4  6EF8               	movwf	tblptru,c
   396  001EE6  0100               	movlb	0
   397  001EE8  EF53  F010         	goto	_main	;jump to C main() function
   398                           tblptru	equ	0xFF8
   399                           tblptrh	equ	0xFF7
   400                           tblptrl	equ	0xFF6
   401                           tablat	equ	0xFF5
   402                           postinc0	equ	0xFEE
   403                           wreg	equ	0xFE8
   404                           postdec1	equ	0xFE5
   405                           fsr1l	equ	0xFE1
   406                           
   407                           	psect	bssCOMRAM
   408  000001                     __pbssCOMRAM:
   409                           	opt stack 0
   410  000001                     _outPipes:
   411                           	opt stack 0
   412  000001                     	ds	8
   413  000009                     _inPipes:
   414                           	opt stack 0
   415  000009                     	ds	6
   416  00000F                     _keyboard:
   417                           	opt stack 0
   418  00000F                     	ds	6
   419  000015                     _pBDTEntryIn:
   420                           	opt stack 0
   421  000015                     	ds	4
   422  000019                     _SOFCounter:
   423                           	opt stack 0
   424  000019                     	ds	2
   425  00001B                     _ep_data_in:
   426                           	opt stack 0
   427  00001B                     	ds	2
   428  00001D                     _ep_data_out:
   429                           	opt stack 0
   430  00001D                     	ds	2
   431  00001F                     _pBDTEntryEP0OutCurrent:
   432                           	opt stack 0
   433  00001F                     	ds	2
   434  000021                     _pBDTEntryEP0OutNext:
   435                           	opt stack 0
   436  000021                     	ds	2
   437  000023                     _USBDeferStatusStagePacket:
   438                           	opt stack 0
   439  000023                     	ds	1
   440  000024                     _USBDeviceState:
   441                           	opt stack 0
   442  000024                     	ds	1
   443  000025                     _controlTransferState:
   444                           	opt stack 0
   445  000025                     	ds	1
   446  000026                     _endpoint_number:
   447                           	opt stack 0
   448  000026                     	ds	1
   449  000027                     _shortPacketStatus:
   450                           	opt stack 0
   451  000027                     	ds	1
   452  000028                     _USBActiveConfiguration:
   453                           	opt stack 0
   454  000028                     	ds	1
   455  000029                     _USBAlternateInterface:
   456                           	opt stack 0
   457  000029                     	ds	1
   458  00002A                     _USTATcopy:
   459                           	opt stack 0
   460  00002A                     	ds	1
   461                           tblptru	equ	0xFF8
   462                           tblptrh	equ	0xFF7
   463                           tblptrl	equ	0xFF6
   464                           tablat	equ	0xFF5
   465                           postinc0	equ	0xFEE
   466                           wreg	equ	0xFE8
   467                           postdec1	equ	0xFE5
   468                           fsr1l	equ	0xFE1
   469                           
   470                           	psect	bssBANK0
   471  000060                     __pbssBANK0:
   472                           	opt stack 0
   473  000060                     _keyModifire:
   474                           	opt stack 0
   475  000060                     	ds	12
   476  00006C                     _oldInputReport:
   477                           	opt stack 0
   478  00006C                     	ds	8
   479  000074                     _USB1msTickCount:
   480                           	opt stack 0
   481  000074                     	ds	4
   482  000078                     _pBDTEntryOut:
   483                           	opt stack 0
   484  000078                     	ds	4
   485  00007C                     _LocalSOFCount:
   486                           	opt stack 0
   487  00007C                     	ds	2
   488  00007E                     _OldSOFCount:
   489                           	opt stack 0
   490  00007E                     	ds	2
   491  000080                     _keyboardIdleRate:
   492                           	opt stack 0
   493  000080                     	ds	2
   494  000082                     _pDst:
   495                           	opt stack 0
   496  000082                     	ds	2
   497  000084                     _BothEP0OutUOWNsSet:
   498                           	opt stack 0
   499  000084                     	ds	1
   500  000085                     _RemoteWakeup:
   501                           	opt stack 0
   502  000085                     	ds	1
   503  000086                     _USBBusIsSuspended:
   504                           	opt stack 0
   505  000086                     	ds	1
   506  000087                     _USBDeferINDataStagePackets:
   507                           	opt stack 0
   508  000087                     	ds	1
   509  000088                     _USBDeferOUTDataStagePackets:
   510                           	opt stack 0
   511  000088                     	ds	1
   512  000089                     _USBStatusStageEnabledFlag1:
   513                           	opt stack 0
   514  000089                     	ds	1
   515  00008A                     _USBStatusStageEnabledFlag2:
   516                           	opt stack 0
   517  00008A                     	ds	1
   518  00008B                     _USBStatusStageTimeoutCounter:
   519                           	opt stack 0
   520  00008B                     	ds	1
   521  00008C                     _USBTicksSinceSuspendEnd:
   522                           	opt stack 0
   523  00008C                     	ds	1
   524  00008D                     _active_protocol:
   525                           	opt stack 0
   526  00008D                     	ds	1
   527  00008E                     _idle_rate:
   528                           	opt stack 0
   529  00008E                     	ds	1
   530                           tblptru	equ	0xFF8
   531                           tblptrh	equ	0xFF7
   532                           tblptrl	equ	0xFF6
   533                           tablat	equ	0xFF5
   534                           postinc0	equ	0xFEE
   535                           wreg	equ	0xFE8
   536                           postdec1	equ	0xFE5
   537                           fsr1l	equ	0xFE1
   538                           
   539                           	psect	dataBANK0
   540  00008F                     __pdataBANK0:
   541                           	opt stack 0
   542  00008F                     _keyCode:
   543                           	opt stack 0
   544  00008F                     	ds	12
   545  00009B                     _shiftedKeyCode:
   546                           	opt stack 0
   547  00009B                     	ds	12
   548  0000A7                     _shiftedKeyModifire:
   549                           	opt stack 0
   550  0000A7                     	ds	12
   551                           tblptru	equ	0xFF8
   552                           tblptrh	equ	0xFF7
   553                           tblptrl	equ	0xFF6
   554                           tablat	equ	0xFF5
   555                           postinc0	equ	0xFEE
   556                           wreg	equ	0xFE8
   557                           postdec1	equ	0xFE5
   558                           fsr1l	equ	0xFE1
   559                           
   560                           	psect	cstackBANK0
   561  0000B3                     __pcstackBANK0:
   562                           	opt stack 0
   563  0000B3                     ?_USBTransferOnePacket:
   564                           	opt stack 0
   565  0000B3                     BUTTON_IsPressed@button:
   566                           	opt stack 0
   567  0000B3                     SYSTEM_Initialize@state:
   568                           	opt stack 0
   569  0000B3                     USBTransferOnePacket@dir:
   570                           	opt stack 0
   571  0000B3                     memset@p1:
   572                           	opt stack 0
   573                           
   574                           ; 2 bytes @ 0x0
   575  0000B3                     	ds	1
   576  0000B4                     USBTransferOnePacket@data:
   577                           	opt stack 0
   578                           
   579                           ; 2 bytes @ 0x1
   580  0000B4                     	ds	1
   581  0000B5                     memset@c:
   582                           	opt stack 0
   583                           
   584                           ; 2 bytes @ 0x2
   585  0000B5                     	ds	1
   586  0000B6                     USBTransferOnePacket@len:
   587                           	opt stack 0
   588                           
   589                           ; 1 bytes @ 0x3
   590  0000B6                     	ds	1
   591  0000B7                     USBTransferOnePacket@ep:
   592                           	opt stack 0
   593  0000B7                     memset@n:
   594                           	opt stack 0
   595                           
   596                           ; 2 bytes @ 0x4
   597  0000B7                     	ds	1
   598  0000B8                     USBTransferOnePacket@handle:
   599                           	opt stack 0
   600                           
   601                           ; 2 bytes @ 0x5
   602  0000B8                     	ds	1
   603  0000B9                     memset@p:
   604                           	opt stack 0
   605                           
   606                           ; 2 bytes @ 0x6
   607  0000B9                     	ds	2
   608  0000BB                     ??_APP_KeyboardTasks:
   609  0000BB                     USBDeviceInit@i:
   610                           	opt stack 0
   611                           
   612                           ; 1 bytes @ 0x8
   613  0000BB                     	ds	2
   614  0000BD                     APP_KeyboardTasks@needToSendNewReportPacket:
   615                           	opt stack 0
   616                           
   617                           ; 1 bytes @ 0xA
   618  0000BD                     	ds	1
   619  0000BE                     APP_KeyboardTasks@TimeDeltaMilliseconds:
   620                           	opt stack 0
   621                           
   622                           ; 2 bytes @ 0xB
   623  0000BE                     	ds	2
   624  0000C0                     APP_KeyboardTasks@i:
   625                           	opt stack 0
   626                           
   627                           ; 1 bytes @ 0xD
   628  0000C0                     	ds	1
   629  0000C1                     tblptru	equ	0xFF8
   630                           tblptrh	equ	0xFF7
   631                           tblptrl	equ	0xFF6
   632                           tablat	equ	0xFF5
   633                           postinc0	equ	0xFEE
   634                           wreg	equ	0xFE8
   635                           postdec1	equ	0xFE5
   636                           fsr1l	equ	0xFE1
   637                           
   638                           ; 1 bytes @ 0xE
   639                           
   640                           	psect	cstackCOMRAM
   641  00002B                     __pcstackCOMRAM:
   642                           	opt stack 0
   643  00002B                     ??_USBStdGetDscHandler:
   644  00002B                     ??_USBStdGetStatusHandler:
   645  00002B                     ?i2_USBTransferOnePacket:
   646                           	opt stack 0
   647  00002B                     USBHIDCBSetIdleRateHandler@newIdleRate:
   648                           	opt stack 0
   649  00002B                     USBConfigureEndpoint@direction:
   650                           	opt stack 0
   651  00002B                     USBCtrlTrfTxService@byteToSend:
   652                           	opt stack 0
   653  00002B                     USBCtrlTrfRxService@i:
   654                           	opt stack 0
   655  00002B                     i2SYSTEM_Initialize@state:
   656                           	opt stack 0
   657  00002B                     i2USBTransferOnePacket@dir:
   658                           	opt stack 0
   659  00002B                     memcpy@d1:
   660                           	opt stack 0
   661  00002B                     i2memset@p1:
   662                           	opt stack 0
   663                           
   664                           ; 2 bytes @ 0x0
   665  00002B                     	ds	1
   666  00002C                     ??_USBConfigureEndpoint:
   667  00002C                     USBHIDCBSetIdleRateHandler@reportID:
   668                           	opt stack 0
   669  00002C                     USBCtrlTrfRxService@byteToRead:
   670                           	opt stack 0
   671  00002C                     USBCtrlTrfInHandler@lastDTS:
   672                           	opt stack 0
   673  00002C                     USBStdGetStatusHandler@p:
   674                           	opt stack 0
   675  00002C                     i2USBTransferOnePacket@data:
   676                           	opt stack 0
   677                           
   678                           ; 2 bytes @ 0x1
   679  00002C                     	ds	1
   680  00002D                     memcpy@s1:
   681                           	opt stack 0
   682  00002D                     i2memset@c:
   683                           	opt stack 0
   684                           
   685                           ; 2 bytes @ 0x2
   686  00002D                     	ds	1
   687  00002E                     i2USBTransferOnePacket@len:
   688                           	opt stack 0
   689                           
   690                           ; 1 bytes @ 0x3
   691  00002E                     	ds	1
   692  00002F                     i2USBTransferOnePacket@ep:
   693                           	opt stack 0
   694  00002F                     memcpy@n:
   695                           	opt stack 0
   696  00002F                     i2memset@n:
   697                           	opt stack 0
   698                           
   699                           ; 2 bytes @ 0x4
   700  00002F                     	ds	1
   701  000030                     USBConfigureEndpoint@EPNum:
   702                           	opt stack 0
   703  000030                     i2USBTransferOnePacket@handle:
   704                           	opt stack 0
   705                           
   706                           ; 2 bytes @ 0x5
   707  000030                     	ds	1
   708  000031                     USBConfigureEndpoint@handle:
   709                           	opt stack 0
   710  000031                     memcpy@d:
   711                           	opt stack 0
   712  000031                     i2memset@p:
   713                           	opt stack 0
   714                           
   715                           ; 2 bytes @ 0x6
   716  000031                     	ds	2
   717  000033                     USBEnableEndpoint@options:
   718                           	opt stack 0
   719  000033                     i2USBDeviceInit@i:
   720                           	opt stack 0
   721  000033                     memcpy@s:
   722                           	opt stack 0
   723                           
   724                           ; 2 bytes @ 0x8
   725  000033                     	ds	1
   726  000034                     USBEnableEndpoint@p:
   727                           	opt stack 0
   728                           
   729                           ; 2 bytes @ 0x9
   730  000034                     	ds	2
   731  000036                     USBEnableEndpoint@ep:
   732                           	opt stack 0
   733                           
   734                           ; 1 bytes @ 0xB
   735  000036                     	ds	1
   736  000037                     USER_USB_CALLBACK_EVENT_HANDLER@event:
   737                           	opt stack 0
   738                           
   739                           ; 2 bytes @ 0xC
   740  000037                     	ds	2
   741  000039                     USER_USB_CALLBACK_EVENT_HANDLER@pdata:
   742                           	opt stack 0
   743                           
   744                           ; 2 bytes @ 0xE
   745  000039                     	ds	2
   746  00003B                     USER_USB_CALLBACK_EVENT_HANDLER@size:
   747                           	opt stack 0
   748                           
   749                           ; 2 bytes @ 0x10
   750  00003B                     	ds	2
   751  00003D                     ??_USER_USB_CALLBACK_EVENT_HANDLER:
   752                           
   753                           ; 1 bytes @ 0x12
   754  00003D                     	ds	2
   755  00003F                     ??_USBStdFeatureReqHandler:
   756  00003F                     USBStdSetCfgHandler@i:
   757                           	opt stack 0
   758                           
   759                           ; 1 bytes @ 0x14
   760  00003F                     	ds	1
   761  000040                     USBStdFeatureReqHandler@pUEP:
   762                           	opt stack 0
   763                           
   764                           ; 2 bytes @ 0x15
   765  000040                     	ds	2
   766  000042                     USBStdFeatureReqHandler@current_ep_data:
   767                           	opt stack 0
   768                           
   769                           ; 1 bytes @ 0x17
   770  000042                     	ds	1
   771  000043                     USBStdFeatureReqHandler@p:
   772                           	opt stack 0
   773                           
   774                           ; 2 bytes @ 0x18
   775  000043                     	ds	2
   776  000045                     ??_USBCtrlEPService:
   777  000045                     
   778                           ; 1 bytes @ 0x1A
   779  000045                     	ds	1
   780  000046                     USBDeviceTasks@i:
   781                           	opt stack 0
   782                           
   783                           ; 1 bytes @ 0x1B
   784  000046                     	ds	1
   785  000047                     ??_SYS_InterruptHigh:
   786                           
   787                           ; 1 bytes @ 0x1C
   788  000047                     	ds	14
   789                           tblptru	equ	0xFF8
   790                           tblptrh	equ	0xFF7
   791                           tblptrl	equ	0xFF6
   792                           tablat	equ	0xFF5
   793                           postinc0	equ	0xFEE
   794                           wreg	equ	0xFE8
   795                           postdec1	equ	0xFE5
   796                           fsr1l	equ	0xFE1
   797                           
   798 ;;
   799 ;;Main: autosize = 0, tempsize = 0, incstack = 0, save=0
   800 ;;
   801 ;; *************** function _main *****************
   802 ;; Defined at:
   803 ;;		line 88 in file "main.c"
   804 ;; Parameters:    Size  Location     Type
   805 ;;		None
   806 ;; Auto vars:     Size  Location     Type
   807 ;;		None
   808 ;; Return value:  Size  Location     Type
   809 ;;                  2  199[None  ] int 
   810 ;; Registers used:
   811 ;;		wreg, fsr1l, fsr1h, fsr2l, fsr2h, status,2, status,0, prodl, prodh, cstack
   812 ;; Tracked objects:
   813 ;;		On entry : 0/0
   814 ;;		On exit  : 0/0
   815 ;;		Unchanged: 0/0
   816 ;; Data sizes:     COMRAM   BANK0   BANK1 BANK2hh BANK2hl
   817 ;;      Params:         0       0       0       0       0
   818 ;;      Locals:         0       0       0       0       0
   819 ;;      Temps:          0       0       0       0       0
   820 ;;      Totals:         0       0       0       0       0
   821 ;;Total ram usage:        0 bytes
   822 ;; Hardware stack levels required when called:   12
   823 ;; This function calls:
   824 ;;		_APP_KeyboardTasks
   825 ;;		_BUTTON_IsPressed
   826 ;;		_SYSTEM_Initialize
   827 ;;		_USBDeviceAttach
   828 ;;		_USBDeviceInit
   829 ;; This function is called by:
   830 ;;		Startup code after reset
   831 ;; This function uses a non-reentrant model
   832 ;;
   833                           
   834                           	psect	text0
   835  0020A6                     __ptext0:
   836                           	opt stack 0
   837  0020A6                     _main:
   838                           	opt stack 19
   839                           
   840                           ;main.c: 90: SYSTEM_Initialize( SYSTEM_STATE_USB_START );
   841                           
   842                           ; BSR set to: 0
   843                           ;incstack = 0
   844  0020A6  0E00               	movlw	0
   845  0020A8  EC8D  F010         	call	_SYSTEM_Initialize
   846                           
   847                           ;main.c: 92: USBDeviceInit();
   848  0020AC  ECB8  F005         	call	_USBDeviceInit	;wreg free
   849                           
   850                           ;main.c: 93: USBDeviceAttach();
   851  0020B0  EC0C  F010         	call	_USBDeviceAttach	;wreg free
   852  0020B4                     l4469:
   853                           
   854                           ;main.c: 96: {
   855                           ;main.c: 97: ;
   856                           ;main.c: 117: if( USBDeviceState < CONFIGURED_STATE )
   857  0020B4  0E20               	movlw	32
   858  0020B6  6024               	cpfslt	_USBDeviceState,c	;volatile
   859  0020B8  D001               	goto	l201
   860  0020BA  D7FC               	goto	l4469
   861  0020BC                     l201:
   862                           
   863                           ;main.c: 121: }
   864                           ;main.c: 127: if( UCONbits.SUSPND== 1 )
   865  0020BC  A264               	btfss	3940,1,c	;volatile
   866  0020BE  D004               	goto	l4475
   867                           
   868                           ;main.c: 128: {
   869                           ;main.c: 131: if(BUTTON_IsPressed(BUTTON_S1) == 0)
   870  0020C0  0E00               	movlw	0
   871  0020C2  EC60  F009         	call	_BUTTON_IsPressed
   872                           
   873                           ;main.c: 134: }
   874                           ;main.c: 137: continue;
   875                           
   876                           ;main.c: 132: {
   877  0020C6  D7F6               	goto	l4469
   878  0020C8                     l4475:
   879                           
   880                           ;main.c: 138: }
   881                           ;main.c: 141: APP_KeyboardTasks();
   882  0020C8  ECEA  F001         	call	_APP_KeyboardTasks	;wreg free
   883  0020CC  D7F3               	goto	l4469
   884  0020CE                     __end_of_main:
   885                           	opt stack 0
   886                           tblptru	equ	0xFF8
   887                           tblptrh	equ	0xFF7
   888                           tblptrl	equ	0xFF6
   889                           tablat	equ	0xFF5
   890                           postinc0	equ	0xFEE
   891                           wreg	equ	0xFE8
   892                           postdec1	equ	0xFE5
   893                           fsr1l	equ	0xFE1
   894                           
   895 ;; *************** function _USBDeviceInit *****************
   896 ;; Defined at:
   897 ;;		line 295 in file "usb_device.c"
   898 ;; Parameters:    Size  Location     Type
   899 ;;		None
   900 ;; Auto vars:     Size  Location     Type
   901 ;;  i               1    8[BANK0 ] unsigned char 
   902 ;; Return value:  Size  Location     Type
   903 ;;                  1    wreg      void 
   904 ;; Registers used:
   905 ;;		wreg, fsr2l, fsr2h, status,2, status,0, prodl, prodh, cstack
   906 ;; Tracked objects:
   907 ;;		On entry : 0/0
   908 ;;		On exit  : 0/0
   909 ;;		Unchanged: 0/0
   910 ;; Data sizes:     COMRAM   BANK0   BANK1 BANK2hh BANK2hl
   911 ;;      Params:         0       0       0       0       0
   912 ;;      Locals:         0       1       0       0       0
   913 ;;      Temps:          0       0       0       0       0
   914 ;;      Totals:         0       1       0       0       0
   915 ;;Total ram usage:        1 bytes
   916 ;; Hardware stack levels used:    1
   917 ;; Hardware stack levels required when called:   11
   918 ;; This function calls:
   919 ;;		_memset
   920 ;; This function is called by:
   921 ;;		_main
   922 ;; This function uses a non-reentrant model
   923 ;;
   924                           
   925                           	psect	text1
   926  000B70                     __ptext1:
   927                           	opt stack 0
   928  000B70                     _USBDeviceInit:
   929                           	opt stack 19
   930                           
   931                           ;usb_device.c: 297: uint8_t i;
   932                           ;usb_device.c: 299: {PIE2bits.USBIE = 0;};
   933                           
   934                           ;incstack = 0
   935  000B70  94A0               	bcf	4000,2,c	;volatile
   936                           
   937                           ;usb_device.c: 303: ;
   938                           ;usb_device.c: 306: {UEIR = 0;};
   939  000B72  0E00               	movlw	0
   940  000B74  010F               	movlb	15	; () banked
   941  000B76  6F5F               	movwf	95,b	;volatile
   942                           
   943                           ;usb_device.c: 309: {UIR = 0;};
   944  000B78  0E00               	movlw	0
   945  000B7A  6E62               	movwf	3938,c	;volatile
   946                           
   947                           ;usb_device.c: 312: UEP0 = 0;
   948  000B7C  0E00               	movlw	0
   949  000B7E  010F               	movlb	15	; () banked
   950  000B80  6F53               	movwf	83,b	;volatile
   951                           
   952                           ; BSR set to: 15
   953                           ;usb_device.c: 314: memset((void*)&UEP1,0x00,(1));;
   954  000B82  0E54               	movlw	84
   955  000B84  0100               	movlb	0	; () banked
   956  000B86  6FB3               	movwf	memset@p1& (0+255),b
   957  000B88  0E0F               	movlw	15
   958  000B8A  0100               	movlb	0	; () banked
   959  000B8C  6FB4               	movwf	(memset@p1+1)& (0+255),b
   960  000B8E  0E00               	movlw	0
   961  000B90  0100               	movlb	0	; () banked
   962  000B92  6FB6               	movwf	(memset@c+1)& (0+255),b
   963  000B94  0E00               	movlw	0
   964  000B96  6FB5               	movwf	memset@c& (0+255),b
   965  000B98  0E00               	movlw	0
   966  000B9A  0100               	movlb	0	; () banked
   967  000B9C  6FB8               	movwf	(memset@n+1)& (0+255),b
   968  000B9E  0E01               	movlw	1
   969  000BA0  6FB7               	movwf	memset@n& (0+255),b
   970  000BA2  ECF2  F00F         	call	_memset	;wreg free
   971                           
   972                           ;usb_device.c: 316: { UCFG = 0x10 | 0x00 | 0x04 | 0x02; UEIE = 0x9F; UIE = 0x39 | 0x40 |
      +                           0x02; };
   973  000BA6  0E16               	movlw	22
   974  000BA8  6E61               	movwf	3937,c	;volatile
   975  000BAA  0E9F               	movlw	159
   976  000BAC  010F               	movlb	15	; () banked
   977  000BAE  6F5B               	movwf	91,b	;volatile
   978                           
   979                           ; BSR set to: 15
   980  000BB0  0E7B               	movlw	123
   981  000BB2  6E60               	movwf	3936,c	;volatile
   982                           
   983                           ; BSR set to: 15
   984                           ;usb_device.c: 319: ;
   985                           ;usb_device.c: 322: ;
   986                           ;usb_device.c: 325: for(i = 0; i < (sizeof(BDT)/sizeof(BDT_ENTRY)); i++)
   987  000BB4  0E00               	movlw	0
   988  000BB6  0100               	movlb	0	; () banked
   989  000BB8  6FBB               	movwf	USBDeviceInit@i& (0+255),b
   990  000BBA                     l4391:
   991                           
   992                           ; BSR set to: 0
   993  000BBA  0E07               	movlw	7
   994  000BBC  0100               	movlb	0	; () banked
   995  000BBE  65BB               	cpfsgt	USBDeviceInit@i& (0+255),b
   996  000BC0  D001               	goto	l4395
   997  000BC2  D010               	goto	l392
   998  000BC4                     l4395:
   999                           
  1000                           ; BSR set to: 0
  1001                           ;usb_device.c: 326: {
  1002                           ;usb_device.c: 327: BDT[i].Val = 0x00;
  1003  000BC4  0100               	movlb	0	; () banked
  1004  000BC6  51BB               	movf	USBDeviceInit@i& (0+255),w,b
  1005  000BC8  0D04               	mullw	4
  1006  000BCA  0E00               	movlw	0
  1007  000BCC  24F3               	addwf	prodl,w,c
  1008  000BCE  6ED9               	movwf	fsr2l,c
  1009  000BD0  0E02               	movlw	2
  1010  000BD2  20F4               	addwfc	prodh,w,c
  1011  000BD4  6EDA               	movwf	fsr2h,c
  1012  000BD6  6ADE               	clrf	postinc2,c
  1013  000BD8  6ADE               	clrf	postinc2,c
  1014  000BDA  6ADE               	clrf	postinc2,c
  1015  000BDC  6ADD               	clrf	postdec2,c
  1016                           
  1017                           ; BSR set to: 0
  1018  000BDE  0100               	movlb	0	; () banked
  1019  000BE0  2BBB               	incf	USBDeviceInit@i& (0+255),f,b
  1020  000BE2  D7EB               	goto	l4391
  1021  000BE4                     l392:
  1022                           
  1023                           ; BSR set to: 0
  1024                           ;usb_device.c: 328: }
  1025                           ;usb_device.c: 331: UCONbits.PPBRST = 1;
  1026  000BE4  8C64               	bsf	3940,6,c	;volatile
  1027                           
  1028                           ; BSR set to: 0
  1029                           ;usb_device.c: 334: UADDR = 0x00;
  1030  000BE6  0E00               	movlw	0
  1031  000BE8  010F               	movlb	15	; () banked
  1032  000BEA  6F5C               	movwf	92,b	;volatile
  1033                           
  1034                           ; BSR set to: 15
  1035                           ;usb_device.c: 337: UCONbits.PKTDIS = 0;
  1036  000BEC  9864               	bcf	3940,4,c	;volatile
  1037                           
  1038                           ; BSR set to: 15
  1039                           ;usb_device.c: 340: UCONbits.PPBRST = 0;
  1040  000BEE  9C64               	bcf	3940,6,c	;volatile
  1041  000BF0                     l4407:
  1042                           
  1043                           ;usb_device.c: 344: {
  1044                           ;usb_device.c: 345: (UIR &= 0xF7);
  1045  000BF0  9662               	bcf	3938,3,c	;volatile
  1046                           
  1047                           ;usb_device.c: 347: inPipes[0].info.Val = 0;
  1048  000BF2  0E00               	movlw	0
  1049  000BF4  6E0C               	movwf	_inPipes+3,c	;volatile
  1050                           
  1051                           ;usb_device.c: 348: outPipes[0].info.Val = 0;
  1052  000BF6  0E00               	movlw	0
  1053  000BF8  6E04               	movwf	_outPipes+3,c	;volatile
  1054                           
  1055                           ;usb_device.c: 349: outPipes[0].wCount.Val = 0;
  1056  000BFA  0E00               	movlw	0
  1057  000BFC  6E06               	movwf	_outPipes+5,c	;volatile
  1058  000BFE  0E00               	movlw	0
  1059  000C00  6E05               	movwf	_outPipes+4,c	;volatile
  1060                           
  1061                           ;usb_device.c: 350: }while(UIRbits.TRNIF == 1);
  1062  000C02  B662               	btfsc	3938,3,c	;volatile
  1063  000C04  D7F5               	goto	l4407
  1064                           
  1065                           ;usb_device.c: 354: USBStatusStageEnabledFlag1 = 1;
  1066  000C06  0E01               	movlw	1
  1067  000C08  0100               	movlb	0	; () banked
  1068  000C0A  6F89               	movwf	_USBStatusStageEnabledFlag1& (0+255),b	;volatile
  1069                           
  1070                           ;usb_device.c: 355: USBStatusStageEnabledFlag2 = 1;
  1071  000C0C  0E01               	movlw	1
  1072  000C0E  0100               	movlb	0	; () banked
  1073  000C10  6F8A               	movwf	_USBStatusStageEnabledFlag2& (0+255),b	;volatile
  1074                           
  1075                           ;usb_device.c: 357: USBDeferINDataStagePackets = 0;
  1076  000C12  0E00               	movlw	0
  1077  000C14  0100               	movlb	0	; () banked
  1078  000C16  6F87               	movwf	_USBDeferINDataStagePackets& (0+255),b	;volatile
  1079                           
  1080                           ;usb_device.c: 358: USBDeferOUTDataStagePackets = 0;
  1081  000C18  0E00               	movlw	0
  1082  000C1A  0100               	movlb	0	; () banked
  1083  000C1C  6F88               	movwf	_USBDeferOUTDataStagePackets& (0+255),b	;volatile
  1084                           
  1085                           ;usb_device.c: 359: USBBusIsSuspended = 0;
  1086  000C1E  0E00               	movlw	0
  1087  000C20  0100               	movlb	0	; () banked
  1088  000C22  6F86               	movwf	_USBBusIsSuspended& (0+255),b	;volatile
  1089                           
  1090                           ;usb_device.c: 363: for(i = 0; i < (uint8_t)(1+1u); i++)
  1091  000C24  0E00               	movlw	0
  1092  000C26  0100               	movlb	0	; () banked
  1093  000C28  6FBB               	movwf	USBDeviceInit@i& (0+255),b
  1094  000C2A                     l4419:
  1095                           
  1096                           ; BSR set to: 0
  1097  000C2A  0E01               	movlw	1
  1098  000C2C  0100               	movlb	0	; () banked
  1099  000C2E  65BB               	cpfsgt	USBDeviceInit@i& (0+255),b
  1100  000C30  D001               	goto	l4423
  1101  000C32  D033               	goto	l4429
  1102  000C34                     l4423:
  1103                           
  1104                           ; BSR set to: 0
  1105                           ;usb_device.c: 364: {
  1106                           ;usb_device.c: 365: pBDTEntryIn[i] = 0u;
  1107  000C34  0100               	movlb	0	; () banked
  1108  000C36  51BB               	movf	USBDeviceInit@i& (0+255),w,b
  1109  000C38  0D02               	mullw	2
  1110  000C3A  0E15               	movlw	low _pBDTEntryIn
  1111  000C3C  24F3               	addwf	prodl,w,c
  1112  000C3E  6ED9               	movwf	fsr2l,c
  1113  000C40  0E00               	movlw	high _pBDTEntryIn
  1114  000C42  20F4               	addwfc	prodh,w,c
  1115  000C44  6EDA               	movwf	fsr2h,c
  1116  000C46  0E00               	movlw	0
  1117  000C48  6EDE               	movwf	postinc2,c
  1118  000C4A  0E00               	movlw	0
  1119  000C4C  6EDD               	movwf	postdec2,c
  1120                           
  1121                           ;usb_device.c: 366: pBDTEntryOut[i] = 0u;
  1122  000C4E  0100               	movlb	0	; () banked
  1123  000C50  51BB               	movf	USBDeviceInit@i& (0+255),w,b
  1124  000C52  0D02               	mullw	2
  1125  000C54  0E78               	movlw	low _pBDTEntryOut
  1126  000C56  24F3               	addwf	prodl,w,c
  1127  000C58  6ED9               	movwf	fsr2l,c
  1128  000C5A  0E00               	movlw	high _pBDTEntryOut
  1129  000C5C  20F4               	addwfc	prodh,w,c
  1130  000C5E  6EDA               	movwf	fsr2h,c
  1131  000C60  0E00               	movlw	0
  1132  000C62  6EDE               	movwf	postinc2,c
  1133  000C64  0E00               	movlw	0
  1134  000C66  6EDD               	movwf	postdec2,c
  1135                           
  1136                           ;usb_device.c: 367: ep_data_in[i].Val = 0u;
  1137  000C68  0100               	movlb	0	; () banked
  1138  000C6A  51BB               	movf	USBDeviceInit@i& (0+255),w,b
  1139  000C6C  0D01               	mullw	1
  1140  000C6E  0E1B               	movlw	low _ep_data_in
  1141  000C70  24F3               	addwf	prodl,w,c
  1142  000C72  6ED9               	movwf	fsr2l,c
  1143  000C74  0E00               	movlw	high _ep_data_in
  1144  000C76  20F4               	addwfc	prodh,w,c
  1145  000C78  6EDA               	movwf	fsr2h,c
  1146  000C7A  0E00               	movlw	0
  1147  000C7C  6EDF               	movwf	indf2,c
  1148                           
  1149                           ;usb_device.c: 368: ep_data_out[i].Val = 0u;
  1150  000C7E  0100               	movlb	0	; () banked
  1151  000C80  51BB               	movf	USBDeviceInit@i& (0+255),w,b
  1152  000C82  0D01               	mullw	1
  1153  000C84  0E1D               	movlw	low _ep_data_out
  1154  000C86  24F3               	addwf	prodl,w,c
  1155  000C88  6ED9               	movwf	fsr2l,c
  1156  000C8A  0E00               	movlw	high _ep_data_out
  1157  000C8C  20F4               	addwfc	prodh,w,c
  1158  000C8E  6EDA               	movwf	fsr2h,c
  1159  000C90  0E00               	movlw	0
  1160  000C92  6EDF               	movwf	indf2,c
  1161                           
  1162                           ; BSR set to: 0
  1163  000C94  0100               	movlb	0	; () banked
  1164  000C96  2BBB               	incf	USBDeviceInit@i& (0+255),f,b
  1165  000C98  D7C8               	goto	l4419
  1166  000C9A                     l4429:
  1167                           
  1168                           ; BSR set to: 0
  1169                           ;usb_device.c: 369: }
  1170                           ;usb_device.c: 372: pBDTEntryIn[0] = (volatile BDT_ENTRY*)&BDT[2];
  1171  000C9A  0E08               	movlw	8
  1172  000C9C  6E15               	movwf	_pBDTEntryIn,c
  1173  000C9E  0E02               	movlw	2
  1174  000CA0  6E16               	movwf	_pBDTEntryIn+1,c
  1175                           
  1176                           ; BSR set to: 0
  1177                           ;usb_device.c: 374: UEP0 = 0x06|0x10;
  1178  000CA2  0E16               	movlw	22
  1179  000CA4  010F               	movlb	15	; () banked
  1180  000CA6  6F53               	movwf	83,b	;volatile
  1181                           
  1182                           ; BSR set to: 15
  1183                           ;usb_device.c: 376: BDT[0].ADR = ((uint16_t)(&SetupPkt));
  1184  000CA8  0E02               	movlw	2
  1185  000CAA  0102               	movlb	2	; () banked
  1186  000CAC  6F03               	movwf	3,b	;volatile
  1187  000CAE  0E20               	movlw	32
  1188  000CB0  6F02               	movwf	2,b	;volatile
  1189                           
  1190                           ; BSR set to: 2
  1191                           ;usb_device.c: 377: BDT[0].CNT = 8;
  1192  000CB2  0E08               	movlw	8
  1193  000CB4  0102               	movlb	2	; () banked
  1194  000CB6  6F01               	movwf	1,b	;volatile
  1195                           
  1196                           ; BSR set to: 2
  1197                           ;usb_device.c: 378: BDT[0].STAT.Val = 0x00|0x04;
  1198  000CB8  0E04               	movlw	4
  1199  000CBA  0102               	movlb	2	; () banked
  1200  000CBC  6F00               	movwf	0,b	;volatile
  1201                           
  1202                           ; BSR set to: 2
  1203                           ;usb_device.c: 379: BDT[0].STAT.Val |= 0x80;
  1204  000CBE  0102               	movlb	2	; () banked
  1205  000CC0  8F00               	bsf	0,7,b	;volatile
  1206                           
  1207                           ; BSR set to: 2
  1208                           ;usb_device.c: 382: USBActiveConfiguration = 0;
  1209  000CC2  0E00               	movlw	0
  1210  000CC4  6E28               	movwf	_USBActiveConfiguration,c	;volatile
  1211                           
  1212                           ; BSR set to: 2
  1213                           ;usb_device.c: 384: USB1msTickCount = 0;
  1214  000CC6  0E00               	movlw	0
  1215  000CC8  0100               	movlb	0	; () banked
  1216  000CCA  6F74               	movwf	_USB1msTickCount& (0+255),b	;volatile
  1217  000CCC  0E00               	movlw	0
  1218  000CCE  6F75               	movwf	(_USB1msTickCount+1)& (0+255),b	;volatile
  1219  000CD0  0E00               	movlw	0
  1220  000CD2  6F76               	movwf	(_USB1msTickCount+2)& (0+255),b	;volatile
  1221  000CD4  0E00               	movlw	0
  1222  000CD6  6F77               	movwf	(_USB1msTickCount+3)& (0+255),b	;volatile
  1223                           
  1224                           ; BSR set to: 0
  1225                           ;usb_device.c: 385: USBTicksSinceSuspendEnd = 0;
  1226  000CD8  0E00               	movlw	0
  1227  000CDA  0100               	movlb	0	; () banked
  1228  000CDC  6F8C               	movwf	_USBTicksSinceSuspendEnd& (0+255),b	;volatile
  1229                           
  1230                           ; BSR set to: 0
  1231                           ;usb_device.c: 388: USBDeviceState = DETACHED_STATE;
  1232  000CDE  0E00               	movlw	0
  1233  000CE0  6E24               	movwf	_USBDeviceState,c	;volatile
  1234                           
  1235                           ; BSR set to: 0
  1236  000CE2  0012               	return		;funcret
  1237  000CE4                     __end_of_USBDeviceInit:
  1238                           	opt stack 0
  1239                           tblptru	equ	0xFF8
  1240                           tblptrh	equ	0xFF7
  1241                           tblptrl	equ	0xFF6
  1242                           tablat	equ	0xFF5
  1243                           prodh	equ	0xFF4
  1244                           prodl	equ	0xFF3
  1245                           postinc0	equ	0xFEE
  1246                           wreg	equ	0xFE8
  1247                           postdec1	equ	0xFE5
  1248                           fsr1l	equ	0xFE1
  1249                           indf2	equ	0xFDF
  1250                           postinc2	equ	0xFDE
  1251                           postdec2	equ	0xFDD
  1252                           fsr2h	equ	0xFDA
  1253                           fsr2l	equ	0xFD9
  1254                           
  1255 ;; *************** function _USBDeviceAttach *****************
  1256 ;; Defined at:
  1257 ;;		line 1370 in file "usb_device.c"
  1258 ;; Parameters:    Size  Location     Type
  1259 ;;		None
  1260 ;; Auto vars:     Size  Location     Type
  1261 ;;		None
  1262 ;; Return value:  Size  Location     Type
  1263 ;;                  1    wreg      void 
  1264 ;; Registers used:
  1265 ;;		wreg, status,2
  1266 ;; Tracked objects:
  1267 ;;		On entry : 0/0
  1268 ;;		On exit  : 0/0
  1269 ;;		Unchanged: 0/0
  1270 ;; Data sizes:     COMRAM   BANK0   BANK1 BANK2hh BANK2hl
  1271 ;;      Params:         0       0       0       0       0
  1272 ;;      Locals:         0       0       0       0       0
  1273 ;;      Temps:          0       0       0       0       0
  1274 ;;      Totals:         0       0       0       0       0
  1275 ;;Total ram usage:        0 bytes
  1276 ;; Hardware stack levels used:    1
  1277 ;; Hardware stack levels required when called:   10
  1278 ;; This function calls:
  1279 ;;		Nothing
  1280 ;; This function is called by:
  1281 ;;		_main
  1282 ;; This function uses a non-reentrant model
  1283 ;;
  1284                           
  1285                           	psect	text2
  1286  002018                     __ptext2:
  1287                           	opt stack 0
  1288  002018                     _USBDeviceAttach:
  1289                           	opt stack 20
  1290                           
  1291                           ;usb_device.c: 1374: {
  1292                           ;usb_device.c: 1375: if(1 == 1)
  1293                           
  1294                           ; BSR set to: 0
  1295                           ;incstack = 0
  1296  002018  5024               	movf	_USBDeviceState,w,c	;volatile
  1297  00201A  A4D8               	btfss	status,2,c
  1298  00201C  0012               	return	
  1299                           
  1300                           ;usb_device.c: 1376: {
  1301                           ;usb_device.c: 1378: UCON = 0;
  1302  00201E  0E00               	movlw	0
  1303  002020  6E64               	movwf	3940,c	;volatile
  1304                           
  1305                           ;usb_device.c: 1381: UIE = 0;
  1306  002022  0E00               	movlw	0
  1307  002024  6E60               	movwf	3936,c	;volatile
  1308                           
  1309                           ;usb_device.c: 1385: { UCFG = 0x10 | 0x00 | 0x04 | 0x02; UEIE = 0x9F; UIE = 0x39 | 0x40 
      +                          | 0x02; };
  1310  002026  0E16               	movlw	22
  1311  002028  6E61               	movwf	3937,c	;volatile
  1312  00202A  0E9F               	movlw	159
  1313  00202C  010F               	movlb	15	; () banked
  1314  00202E  6F5B               	movwf	91,b	;volatile
  1315  002030  0E7B               	movlw	123
  1316  002032  6E60               	movwf	3936,c	;volatile
  1317                           
  1318                           ; BSR set to: 15
  1319                           ;usb_device.c: 1387: {RCONbits.IPEN = 1;IPR2bits.USBIP = 1;PIE2bits.USBIE = 1;INTCONbits
      +                          .GIEH = 1;};
  1320  002034  8ED0               	bsf	4048,7,c	;volatile
  1321                           
  1322                           ; BSR set to: 15
  1323  002036  84A2               	bsf	4002,2,c	;volatile
  1324                           
  1325                           ; BSR set to: 15
  1326  002038  84A0               	bsf	4000,2,c	;volatile
  1327                           
  1328                           ; BSR set to: 15
  1329  00203A  8EF2               	bsf	intcon,7,c	;volatile
  1330                           
  1331                           ;usb_device.c: 1390: while(!UCONbits.USBEN){UCONbits.USBEN = 1;}
  1332  00203C  D001               	goto	l452
  1333  00203E                     l453:
  1334  00203E  8664               	bsf	3940,3,c	;volatile
  1335  002040                     l452:
  1336  002040  A664               	btfss	3940,3,c	;volatile
  1337  002042  D7FD               	goto	l453
  1338                           
  1339                           ;usb_device.c: 1393: USBDeviceState = ATTACHED_STATE;
  1340  002044  0E01               	movlw	1
  1341  002046  6E24               	movwf	_USBDeviceState,c	;volatile
  1342  002048  0012               	return	
  1343  00204A                     __end_of_USBDeviceAttach:
  1344                           	opt stack 0
  1345                           tblptru	equ	0xFF8
  1346                           tblptrh	equ	0xFF7
  1347                           tblptrl	equ	0xFF6
  1348                           tablat	equ	0xFF5
  1349                           prodh	equ	0xFF4
  1350                           prodl	equ	0xFF3
  1351                           intcon	equ	0xFF2
  1352                           postinc0	equ	0xFEE
  1353                           wreg	equ	0xFE8
  1354                           postdec1	equ	0xFE5
  1355                           fsr1l	equ	0xFE1
  1356                           indf2	equ	0xFDF
  1357                           postinc2	equ	0xFDE
  1358                           postdec2	equ	0xFDD
  1359                           fsr2h	equ	0xFDA
  1360                           fsr2l	equ	0xFD9
  1361                           status	equ	0xFD8
  1362                           
  1363 ;; *************** function _SYSTEM_Initialize *****************
  1364 ;; Defined at:
  1365 ;;		line 69 in file "system.c"
  1366 ;; Parameters:    Size  Location     Type
  1367 ;;  state           1    wreg     enum E3846
  1368 ;; Auto vars:     Size  Location     Type
  1369 ;;  state           1    0[BANK0 ] enum E3846
  1370 ;; Return value:  Size  Location     Type
  1371 ;;                  1    wreg      void 
  1372 ;; Registers used:
  1373 ;;		wreg, status,2, status,0, cstack
  1374 ;; Tracked objects:
  1375 ;;		On entry : 0/0
  1376 ;;		On exit  : 0/0
  1377 ;;		Unchanged: 0/0
  1378 ;; Data sizes:     COMRAM   BANK0   BANK1 BANK2hh BANK2hl
  1379 ;;      Params:         0       0       0       0       0
  1380 ;;      Locals:         0       1       0       0       0
  1381 ;;      Temps:          0       0       0       0       0
  1382 ;;      Totals:         0       1       0       0       0
  1383 ;;Total ram usage:        1 bytes
  1384 ;; Hardware stack levels used:    1
  1385 ;; Hardware stack levels required when called:   11
  1386 ;; This function calls:
  1387 ;;		_BUTTON_Enable
  1388 ;; This function is called by:
  1389 ;;		_main
  1390 ;; This function uses a non-reentrant model
  1391 ;;
  1392                           
  1393                           	psect	text3
  1394  00211A                     __ptext3:
  1395                           	opt stack 0
  1396  00211A                     _SYSTEM_Initialize:
  1397                           	opt stack 19
  1398                           
  1399                           ;incstack = 0
  1400                           ;SYSTEM_Initialize@state stored from wreg
  1401  00211A  0100               	movlb	0	; () banked
  1402  00211C  6FB3               	movwf	SYSTEM_Initialize@state& (0+255),b
  1403                           
  1404                           ;system.c: 71: switch(state)
  1405  00211E  D004               	goto	l4375
  1406  002120                     l4371:
  1407                           
  1408                           ;system.c: 78: BUTTON_Enable(BUTTON_S1);
  1409  002120  0E00               	movlw	0
  1410  002122  ECC4  F010         	call	_BUTTON_Enable
  1411                           
  1412                           ;system.c: 86: }
  1413                           
  1414                           ;system.c: 85: break;
  1415                           
  1416                           ;system.c: 84: case SYSTEM_STATE_USB_RESUME:
  1417                           
  1418                           ;system.c: 82: break;
  1419                           
  1420                           ;system.c: 81: case SYSTEM_STATE_USB_SUSPEND:
  1421                           
  1422                           ;system.c: 79: break;
  1423  002126  0012               	return	
  1424  002128                     l4375:
  1425  002128  0100               	movlb	0	; () banked
  1426  00212A  51B3               	movf	SYSTEM_Initialize@state& (0+255),w,b
  1427                           
  1428                           ; Switch size 1, requested type "space"
  1429                           ; Number of cases is 3, Range of values is 0 to 2
  1430                           ; switch strategies available:
  1431                           ; Name         Instructions Cycles
  1432                           ; simple_byte           10     6 (average)
  1433                           ;	Chosen strategy is simple_byte
  1434  00212C  0A00               	xorlw	0	; case 0
  1435  00212E  B4D8               	btfsc	status,2,c
  1436  002130  D7F7               	goto	l4371
  1437  002132  0A01               	xorlw	1	; case 1
  1438  002134  B4D8               	btfsc	status,2,c
  1439  002136  0012               	return	
  1440  002138  0A03               	xorlw	3	; case 2
  1441  00213A  0012               	return	
  1442  00213C                     __end_of_SYSTEM_Initialize:
  1443                           	opt stack 0
  1444                           tblptru	equ	0xFF8
  1445                           tblptrh	equ	0xFF7
  1446                           tblptrl	equ	0xFF6
  1447                           tablat	equ	0xFF5
  1448                           prodh	equ	0xFF4
  1449                           prodl	equ	0xFF3
  1450                           intcon	equ	0xFF2
  1451                           postinc0	equ	0xFEE
  1452                           wreg	equ	0xFE8
  1453                           postdec1	equ	0xFE5
  1454                           fsr1l	equ	0xFE1
  1455                           indf2	equ	0xFDF
  1456                           postinc2	equ	0xFDE
  1457                           postdec2	equ	0xFDD
  1458                           fsr2h	equ	0xFDA
  1459                           fsr2l	equ	0xFD9
  1460                           status	equ	0xFD8
  1461                           
  1462 ;; *************** function _BUTTON_Enable *****************
  1463 ;; Defined at:
  1464 ;;		line 129 in file "buttons.c"
  1465 ;; Parameters:    Size  Location     Type
  1466 ;;  button          1    wreg     enum E3600
  1467 ;; Auto vars:     Size  Location     Type
  1468 ;;  button          1    0[COMRAM] enum E3600
  1469 ;; Return value:  Size  Location     Type
  1470 ;;                  1    wreg      void 
  1471 ;; Registers used:
  1472 ;;		wreg, status,2
  1473 ;; Tracked objects:
  1474 ;;		On entry : 0/0
  1475 ;;		On exit  : 0/0
  1476 ;;		Unchanged: 0/0
  1477 ;; Data sizes:     COMRAM   BANK0   BANK1 BANK2hh BANK2hl
  1478 ;;      Params:         0       0       0       0       0
  1479 ;;      Locals:         0       0       0       0       0
  1480 ;;      Temps:          0       0       0       0       0
  1481 ;;      Totals:         0       0       0       0       0
  1482 ;;Total ram usage:        0 bytes
  1483 ;; Hardware stack levels used:    1
  1484 ;; Hardware stack levels required when called:   10
  1485 ;; This function calls:
  1486 ;;		Nothing
  1487 ;; This function is called by:
  1488 ;;		_SYSTEM_Initialize
  1489 ;; This function uses a non-reentrant model
  1490 ;;
  1491                           
  1492                           	psect	text4
  1493  002188                     __ptext4:
  1494                           	opt stack 0
  1495  002188                     _BUTTON_Enable:
  1496                           	opt stack 19
  1497                           
  1498                           ;buttons.c: 133: ANSEL = 0x00;
  1499                           
  1500                           ;incstack = 0
  1501  002188  0E00               	movlw	0
  1502  00218A  6E7E               	movwf	3966,c	;volatile
  1503                           
  1504                           ;buttons.c: 134: ANSELH = 0x00;
  1505  00218C  0E00               	movlw	0
  1506  00218E  6E7F               	movwf	3967,c	;volatile
  1507                           
  1508                           ;buttons.c: 138: TRISB = 0xf0;
  1509  002190  0EF0               	movlw	240
  1510  002192  6E93               	movwf	3987,c	;volatile
  1511                           
  1512                           ;buttons.c: 139: TRISC = 0xff;
  1513  002194  6894               	setf	3988,c	;volatile
  1514  002196  0012               	return		;funcret
  1515  002198                     __end_of_BUTTON_Enable:
  1516                           	opt stack 0
  1517                           tblptru	equ	0xFF8
  1518                           tblptrh	equ	0xFF7
  1519                           tblptrl	equ	0xFF6
  1520                           tablat	equ	0xFF5
  1521                           prodh	equ	0xFF4
  1522                           prodl	equ	0xFF3
  1523                           intcon	equ	0xFF2
  1524                           postinc0	equ	0xFEE
  1525                           wreg	equ	0xFE8
  1526                           postdec1	equ	0xFE5
  1527                           fsr1l	equ	0xFE1
  1528                           indf2	equ	0xFDF
  1529                           postinc2	equ	0xFDE
  1530                           postdec2	equ	0xFDD
  1531                           fsr2h	equ	0xFDA
  1532                           fsr2l	equ	0xFD9
  1533                           status	equ	0xFD8
  1534                           
  1535 ;; *************** function _APP_KeyboardTasks *****************
  1536 ;; Defined at:
  1537 ;;		line 356 in file "app_device_keyboard.c"
  1538 ;; Parameters:    Size  Location     Type
  1539 ;;		None
  1540 ;; Auto vars:     Size  Location     Type
  1541 ;;  TimeDeltaMil    2   11[BANK0 ] int 
  1542 ;;  i               1   13[BANK0 ] unsigned char 
  1543 ;;  needToSendNe    1   10[BANK0 ] unsigned char 
  1544 ;; Return value:  Size  Location     Type
  1545 ;;                  1    wreg      void 
  1546 ;; Registers used:
  1547 ;;		wreg, fsr1l, fsr1h, fsr2l, fsr2h, status,2, status,0, prodl, prodh, cstack
  1548 ;; Tracked objects:
  1549 ;;		On entry : 0/0
  1550 ;;		On exit  : 0/0
  1551 ;;		Unchanged: 0/0
  1552 ;; Data sizes:     COMRAM   BANK0   BANK1 BANK2hh BANK2hl
  1553 ;;      Params:         0       0       0       0       0
  1554 ;;      Locals:         0       4       0       0       0
  1555 ;;      Temps:          0       2       0       0       0
  1556 ;;      Totals:         0       6       0       0       0
  1557 ;;Total ram usage:        6 bytes
  1558 ;; Hardware stack levels used:    1
  1559 ;; Hardware stack levels required when called:   11
  1560 ;; This function calls:
  1561 ;;		_APP_KeyboardProcessOutputReport
  1562 ;;		_BUTTON_IsPressed
  1563 ;;		_USBTransferOnePacket
  1564 ;;		_memset
  1565 ;; This function is called by:
  1566 ;;		_main
  1567 ;; This function uses a non-reentrant model
  1568 ;;
  1569                           
  1570                           	psect	text5
  1571  0003D4                     __ptext5:
  1572                           	opt stack 0
  1573  0003D4                     _APP_KeyboardTasks:
  1574                           	opt stack 19
  1575                           
  1576                           ;app_device_keyboard.c: 358: signed int TimeDeltaMilliseconds;
  1577                           ;app_device_keyboard.c: 359: unsigned char i;
  1578                           ;app_device_keyboard.c: 360: bool needToSendNewReportPacket;
  1579                           ;app_device_keyboard.c: 365: while(LocalSOFCount != SOFCounter)
  1580                           
  1581                           ;incstack = 0
  1582  0003D4  D004               	goto	l4153
  1583  0003D6                     l54:
  1584                           
  1585                           ; BSR set to: 0
  1586                           ;app_device_keyboard.c: 366: {
  1587                           ;app_device_keyboard.c: 367: LocalSOFCount = SOFCounter;
  1588  0003D6  C019  F07C         	movff	_SOFCounter,_LocalSOFCount	;volatile
  1589  0003DA  C01A  F07D         	movff	_SOFCounter+1,_LocalSOFCount+1	;volatile
  1590  0003DE                     l4153:
  1591  0003DE  5019               	movf	_SOFCounter,w,c	;volatile
  1592  0003E0  0100               	movlb	0	; () banked
  1593  0003E2  197C               	xorwf	_LocalSOFCount& (0+255),w,b
  1594  0003E4  E1F8               	bnz	l54
  1595  0003E6  501A               	movf	_SOFCounter+1,w,c	;volatile
  1596  0003E8  0100               	movlb	0	; () banked
  1597  0003EA  197D               	xorwf	(_LocalSOFCount+1)& (0+255),w,b
  1598  0003EC  A4D8               	btfss	status,2,c
  1599  0003EE  D7F3               	goto	l54
  1600                           
  1601                           ; BSR set to: 0
  1602                           ;app_device_keyboard.c: 368: }
  1603                           ;app_device_keyboard.c: 372: TimeDeltaMilliseconds = LocalSOFCount - OldSOFCount;
  1604                           
  1605                           ; BSR set to: 0
  1606  0003F0  C07E  F0BB         	movff	_OldSOFCount,??_APP_KeyboardTasks
  1607  0003F4  C07F  F0BC         	movff	_OldSOFCount+1,??_APP_KeyboardTasks+1
  1608  0003F8  0100               	movlb	0	; () banked
  1609  0003FA  1FBB               	comf	??_APP_KeyboardTasks& (0+255),f,b
  1610  0003FC  1FBC               	comf	(??_APP_KeyboardTasks+1)& (0+255),f,b
  1611  0003FE  4BBB               	infsnz	??_APP_KeyboardTasks& (0+255),f,b
  1612  000400  2BBC               	incf	(??_APP_KeyboardTasks+1)& (0+255),f,b
  1613  000402  0100               	movlb	0	; () banked
  1614  000404  517C               	movf	_LocalSOFCount& (0+255),w,b
  1615  000406  0100               	movlb	0	; () banked
  1616  000408  25BB               	addwf	??_APP_KeyboardTasks& (0+255),w,b
  1617  00040A  0100               	movlb	0	; () banked
  1618  00040C  6FBE               	movwf	APP_KeyboardTasks@TimeDeltaMilliseconds& (0+255),b
  1619  00040E  0100               	movlb	0	; () banked
  1620  000410  517D               	movf	(_LocalSOFCount+1)& (0+255),w,b
  1621  000412  0100               	movlb	0	; () banked
  1622  000414  21BC               	addwfc	(??_APP_KeyboardTasks+1)& (0+255),w,b
  1623  000416  0100               	movlb	0	; () banked
  1624  000418  6FBF               	movwf	(APP_KeyboardTasks@TimeDeltaMilliseconds+1)& (0+255),b
  1625                           
  1626                           ;app_device_keyboard.c: 374: if(TimeDeltaMilliseconds < 0)
  1627  00041A  0100               	movlb	0	; () banked
  1628  00041C  AFBF               	btfss	(APP_KeyboardTasks@TimeDeltaMilliseconds+1)& (0+255),7,b
  1629  00041E  D01B               	goto	l56
  1630                           
  1631                           ; BSR set to: 0
  1632                           ;app_device_keyboard.c: 375: {
  1633                           ;app_device_keyboard.c: 376: TimeDeltaMilliseconds = (32767 - OldSOFCount) + LocalSOFCou
      +                          nt;
  1634  000420  C07E  F0BB         	movff	_OldSOFCount,??_APP_KeyboardTasks
  1635  000424  C07F  F0BC         	movff	_OldSOFCount+1,??_APP_KeyboardTasks+1
  1636  000428  0100               	movlb	0	; () banked
  1637  00042A  1FBB               	comf	??_APP_KeyboardTasks& (0+255),f,b
  1638  00042C  1FBC               	comf	(??_APP_KeyboardTasks+1)& (0+255),f,b
  1639  00042E  4BBB               	infsnz	??_APP_KeyboardTasks& (0+255),f,b
  1640  000430  2BBC               	incf	(??_APP_KeyboardTasks+1)& (0+255),f,b
  1641  000432  0100               	movlb	0	; () banked
  1642  000434  517C               	movf	_LocalSOFCount& (0+255),w,b
  1643  000436  0100               	movlb	0	; () banked
  1644  000438  27BB               	addwf	??_APP_KeyboardTasks& (0+255),f,b
  1645  00043A  0100               	movlb	0	; () banked
  1646  00043C  517D               	movf	(_LocalSOFCount+1)& (0+255),w,b
  1647  00043E  0100               	movlb	0	; () banked
  1648  000440  23BC               	addwfc	(??_APP_KeyboardTasks+1)& (0+255),f,b
  1649  000442  0EFF               	movlw	255
  1650  000444  0100               	movlb	0	; () banked
  1651  000446  25BB               	addwf	??_APP_KeyboardTasks& (0+255),w,b
  1652  000448  0100               	movlb	0	; () banked
  1653  00044A  6FBE               	movwf	APP_KeyboardTasks@TimeDeltaMilliseconds& (0+255),b
  1654  00044C  0E7F               	movlw	127
  1655  00044E  0100               	movlb	0	; () banked
  1656  000450  21BC               	addwfc	(??_APP_KeyboardTasks+1)& (0+255),w,b
  1657  000452  0100               	movlb	0	; () banked
  1658  000454  6FBF               	movwf	(APP_KeyboardTasks@TimeDeltaMilliseconds+1)& (0+255),b
  1659  000456                     l56:
  1660                           
  1661                           ; BSR set to: 0
  1662                           ;app_device_keyboard.c: 377: }
  1663                           ;app_device_keyboard.c: 383: if(TimeDeltaMilliseconds > 5000)
  1664  000456  0100               	movlb	0	; () banked
  1665  000458  BFBF               	btfsc	(APP_KeyboardTasks@TimeDeltaMilliseconds+1)& (0+255),7,b
  1666  00045A  D012               	goto	l57
  1667  00045C  0E89               	movlw	137
  1668  00045E  0100               	movlb	0	; () banked
  1669  000460  5DBE               	subwf	APP_KeyboardTasks@TimeDeltaMilliseconds& (0+255),w,b
  1670  000462  0E13               	movlw	19
  1671  000464  0100               	movlb	0	; () banked
  1672  000466  59BF               	subwfb	(APP_KeyboardTasks@TimeDeltaMilliseconds+1)& (0+255),w,b
  1673  000468  A0D8               	btfss	status,0,c
  1674  00046A  D00A               	goto	l57
  1675                           
  1676                           ; BSR set to: 0
  1677                           ;app_device_keyboard.c: 384: {
  1678                           ;app_device_keyboard.c: 385: OldSOFCount = LocalSOFCount - 5000;
  1679  00046C  0E78               	movlw	120
  1680  00046E  0100               	movlb	0	; () banked
  1681  000470  257C               	addwf	_LocalSOFCount& (0+255),w,b
  1682  000472  0100               	movlb	0	; () banked
  1683  000474  6F7E               	movwf	_OldSOFCount& (0+255),b
  1684  000476  0EEC               	movlw	236
  1685  000478  0100               	movlb	0	; () banked
  1686  00047A  217D               	addwfc	(_LocalSOFCount+1)& (0+255),w,b
  1687  00047C  0100               	movlb	0	; () banked
  1688  00047E  6F7F               	movwf	(_OldSOFCount+1)& (0+255),b
  1689  000480                     l57:
  1690                           
  1691                           ; BSR set to: 0
  1692                           ;app_device_keyboard.c: 386: }
  1693                           ;app_device_keyboard.c: 391: if(((keyboard.lastINTransmission != 0x0000) && ((*(volatile
      +                           uint8_t*)keyboard.lastINTransmission & 0x80) != 0x00)) == 0)
  1694  000480  500F               	movf	_keyboard,w,c
  1695  000482  1010               	iorwf	_keyboard+1,w,c
  1696  000484  B4D8               	btfsc	status,2,c
  1697  000486  D006               	goto	l4163
  1698                           
  1699                           ; BSR set to: 0
  1700  000488  C00F  FFD9         	movff	_keyboard,fsr2l
  1701  00048C  C010  FFDA         	movff	_keyboard+1,fsr2h
  1702  000490  BEDF               	btfsc	indf2,7,c
  1703  000492  D20F               	goto	l4359
  1704  000494                     l4163:
  1705                           
  1706                           ; BSR set to: 0
  1707                           ;app_device_keyboard.c: 392: {
  1708                           ;app_device_keyboard.c: 394: memset(&inputReport, 0, sizeof(inputReport));
  1709  000494  0E40               	movlw	64
  1710  000496  0100               	movlb	0	; () banked
  1711  000498  6FB3               	movwf	memset@p1& (0+255),b
  1712  00049A  0E02               	movlw	2
  1713  00049C  0100               	movlb	0	; () banked
  1714  00049E  6FB4               	movwf	(memset@p1+1)& (0+255),b
  1715  0004A0  0E00               	movlw	0
  1716  0004A2  0100               	movlb	0	; () banked
  1717  0004A4  6FB6               	movwf	(memset@c+1)& (0+255),b
  1718  0004A6  0E00               	movlw	0
  1719  0004A8  6FB5               	movwf	memset@c& (0+255),b
  1720  0004AA  0E00               	movlw	0
  1721  0004AC  0100               	movlb	0	; () banked
  1722  0004AE  6FB8               	movwf	(memset@n+1)& (0+255),b
  1723  0004B0  0E08               	movlw	8
  1724  0004B2  6FB7               	movwf	memset@n& (0+255),b
  1725  0004B4  ECF2  F00F         	call	_memset	;wreg free
  1726                           
  1727                           ;app_device_keyboard.c: 400: if(BUTTON_IsPressed(BUTTON_S1) == 1) {
  1728  0004B8  0E00               	movlw	0
  1729  0004BA  EC60  F009         	call	_BUTTON_IsPressed
  1730  0004BE  06E8               	decf	wreg,f,c
  1731  0004C0  A4D8               	btfss	status,2,c
  1732  0004C2  D01A               	goto	l4177
  1733                           
  1734                           ;app_device_keyboard.c: 401: if(keyboard.waitingForRelease == 0) {
  1735  0004C4  5014               	movf	_keyboard+5,w,c
  1736  0004C6  A4D8               	btfss	status,2,c
  1737  0004C8  D019               	goto	l4179
  1738                           
  1739                           ;app_device_keyboard.c: 402: keyboard.waitingForRelease = 1;
  1740  0004CA  0E01               	movlw	1
  1741  0004CC  6E14               	movwf	_keyboard+5,c
  1742                           
  1743                           ;app_device_keyboard.c: 404: if( PORTAbits.RA3 ) {
  1744  0004CE  A680               	btfss	3968,3,c	;volatile
  1745  0004D0  D005               	goto	l63
  1746                           
  1747                           ;app_device_keyboard.c: 405: inputReport.keys[0] = keyCode[BUTTON_S1];
  1748  0004D2  C08F  F242         	movff	_keyCode,578
  1749                           
  1750                           ;app_device_keyboard.c: 406: inputReport.modifiers.value = keyModifire[BUTTON_S1];
  1751  0004D6  C060  F240         	movff	_keyModifire,576
  1752                           
  1753                           ;app_device_keyboard.c: 407: } else {
  1754  0004DA  D004               	goto	l4175
  1755  0004DC                     l63:
  1756                           
  1757                           ;app_device_keyboard.c: 408: inputReport.keys[0] = shiftedKeyCode[BUTTON_S1];
  1758  0004DC  C09B  F242         	movff	_shiftedKeyCode,578
  1759                           
  1760                           ;app_device_keyboard.c: 409: inputReport.modifiers.value = shiftedKeyModifire[BUTTON_S1]
      +                          ;
  1761  0004E0  C0A7  F240         	movff	_shiftedKeyModifire,576
  1762  0004E4                     l4175:
  1763                           
  1764                           ;app_device_keyboard.c: 410: }
  1765                           ;app_device_keyboard.c: 411: _delay((unsigned long)((20)*(12000000/4000.0)));
  1766  0004E4  0E4E               	movlw	78
  1767  0004E6  0100               	movlb	0	; () banked
  1768  0004E8  6FBB               	movwf	??_APP_KeyboardTasks& (0+255),b
  1769  0004EA  0EEB               	movlw	235
  1770  0004EC                     u5147:
  1771  0004EC  2EE8               	decfsz	wreg,f,c
  1772  0004EE  D7FE               	goto	u5147
  1773  0004F0  2FBB               	decfsz	??_APP_KeyboardTasks& (0+255),f,b
  1774  0004F2  D7FC               	goto	u5147
  1775  0004F4  F000               	nop	
  1776                           
  1777                           ;app_device_keyboard.c: 412: }
  1778                           ;app_device_keyboard.c: 413: } else {
  1779  0004F6  D002               	goto	l4179
  1780  0004F8                     l4177:
  1781                           
  1782                           ;app_device_keyboard.c: 414: keyboard.waitingForRelease = 0;
  1783  0004F8  0E00               	movlw	0
  1784  0004FA  6E14               	movwf	_keyboard+5,c
  1785  0004FC                     l4179:
  1786                           
  1787                           ;app_device_keyboard.c: 415: }
  1788                           ;app_device_keyboard.c: 417: if(BUTTON_IsPressed(BUTTON_S2) == 1) {
  1789  0004FC  0E01               	movlw	1
  1790  0004FE  EC60  F009         	call	_BUTTON_IsPressed
  1791  000502  06E8               	decf	wreg,f,c
  1792  000504  A4D8               	btfss	status,2,c
  1793  000506  D01A               	goto	l4191
  1794                           
  1795                           ;app_device_keyboard.c: 418: if(keyboard.waitingForRelease == 0) {
  1796  000508  5014               	movf	_keyboard+5,w,c
  1797  00050A  A4D8               	btfss	status,2,c
  1798  00050C  D019               	goto	l4193
  1799                           
  1800                           ;app_device_keyboard.c: 419: keyboard.waitingForRelease = 1;
  1801  00050E  0E01               	movlw	1
  1802  000510  6E14               	movwf	_keyboard+5,c
  1803                           
  1804                           ;app_device_keyboard.c: 421: if( PORTAbits.RA3 ) {
  1805  000512  A680               	btfss	3968,3,c	;volatile
  1806  000514  D005               	goto	l68
  1807                           
  1808                           ;app_device_keyboard.c: 422: inputReport.keys[0] = keyCode[BUTTON_S2];
  1809  000516  C090  F242         	movff	_keyCode+1,578
  1810                           
  1811                           ;app_device_keyboard.c: 423: inputReport.modifiers.value = keyModifire[BUTTON_S2];
  1812  00051A  C061  F240         	movff	_keyModifire+1,576
  1813                           
  1814                           ;app_device_keyboard.c: 424: } else {
  1815  00051E  D004               	goto	l4189
  1816  000520                     l68:
  1817                           
  1818                           ;app_device_keyboard.c: 425: inputReport.keys[0] = shiftedKeyCode[BUTTON_S2];
  1819  000520  C09C  F242         	movff	_shiftedKeyCode+1,578
  1820                           
  1821                           ;app_device_keyboard.c: 426: inputReport.modifiers.value = shiftedKeyModifire[BUTTON_S2]
      +                          ;
  1822  000524  C0A8  F240         	movff	_shiftedKeyModifire+1,576
  1823  000528                     l4189:
  1824                           
  1825                           ;app_device_keyboard.c: 427: }
  1826                           ;app_device_keyboard.c: 428: _delay((unsigned long)((20)*(12000000/4000.0)));
  1827  000528  0E4E               	movlw	78
  1828  00052A  0100               	movlb	0	; () banked
  1829  00052C  6FBB               	movwf	??_APP_KeyboardTasks& (0+255),b
  1830  00052E  0EEB               	movlw	235
  1831  000530                     u5157:
  1832  000530  2EE8               	decfsz	wreg,f,c
  1833  000532  D7FE               	goto	u5157
  1834  000534  2FBB               	decfsz	??_APP_KeyboardTasks& (0+255),f,b
  1835  000536  D7FC               	goto	u5157
  1836  000538  F000               	nop	
  1837                           
  1838                           ;app_device_keyboard.c: 429: }
  1839                           ;app_device_keyboard.c: 430: } else {
  1840  00053A  D002               	goto	l4193
  1841  00053C                     l4191:
  1842                           
  1843                           ;app_device_keyboard.c: 431: keyboard.waitingForRelease = 0;
  1844  00053C  0E00               	movlw	0
  1845  00053E  6E14               	movwf	_keyboard+5,c
  1846  000540                     l4193:
  1847                           
  1848                           ;app_device_keyboard.c: 432: }
  1849                           ;app_device_keyboard.c: 434: if(BUTTON_IsPressed(BUTTON_S3) == 1) {
  1850  000540  0E02               	movlw	2
  1851  000542  EC60  F009         	call	_BUTTON_IsPressed
  1852  000546  06E8               	decf	wreg,f,c
  1853  000548  A4D8               	btfss	status,2,c
  1854  00054A  D01A               	goto	l4205
  1855                           
  1856                           ;app_device_keyboard.c: 435: if(keyboard.waitingForRelease == 0) {
  1857  00054C  5014               	movf	_keyboard+5,w,c
  1858  00054E  A4D8               	btfss	status,2,c
  1859  000550  D019               	goto	l4207
  1860                           
  1861                           ;app_device_keyboard.c: 436: keyboard.waitingForRelease = 1;
  1862  000552  0E01               	movlw	1
  1863  000554  6E14               	movwf	_keyboard+5,c
  1864                           
  1865                           ;app_device_keyboard.c: 438: if( PORTAbits.RA3 ) {
  1866  000556  A680               	btfss	3968,3,c	;volatile
  1867  000558  D005               	goto	l73
  1868                           
  1869                           ;app_device_keyboard.c: 439: inputReport.keys[0] = keyCode[BUTTON_S3];
  1870  00055A  C091  F242         	movff	_keyCode+2,578
  1871                           
  1872                           ;app_device_keyboard.c: 440: inputReport.modifiers.value = keyModifire[BUTTON_S3];
  1873  00055E  C062  F240         	movff	_keyModifire+2,576
  1874                           
  1875                           ;app_device_keyboard.c: 441: } else {
  1876  000562  D004               	goto	l4203
  1877  000564                     l73:
  1878                           
  1879                           ;app_device_keyboard.c: 442: inputReport.keys[0] = shiftedKeyCode[BUTTON_S3];
  1880  000564  C09D  F242         	movff	_shiftedKeyCode+2,578
  1881                           
  1882                           ;app_device_keyboard.c: 443: inputReport.modifiers.value = shiftedKeyModifire[BUTTON_S3]
      +                          ;
  1883  000568  C0A9  F240         	movff	_shiftedKeyModifire+2,576
  1884  00056C                     l4203:
  1885                           
  1886                           ;app_device_keyboard.c: 444: }
  1887                           ;app_device_keyboard.c: 445: _delay((unsigned long)((20)*(12000000/4000.0)));
  1888  00056C  0E4E               	movlw	78
  1889  00056E  0100               	movlb	0	; () banked
  1890  000570  6FBB               	movwf	??_APP_KeyboardTasks& (0+255),b
  1891  000572  0EEB               	movlw	235
  1892  000574                     u5167:
  1893  000574  2EE8               	decfsz	wreg,f,c
  1894  000576  D7FE               	goto	u5167
  1895  000578  2FBB               	decfsz	??_APP_KeyboardTasks& (0+255),f,b
  1896  00057A  D7FC               	goto	u5167
  1897  00057C  F000               	nop	
  1898                           
  1899                           ;app_device_keyboard.c: 446: }
  1900                           ;app_device_keyboard.c: 447: } else {
  1901  00057E  D002               	goto	l4207
  1902  000580                     l4205:
  1903                           
  1904                           ;app_device_keyboard.c: 448: keyboard.waitingForRelease = 0;
  1905  000580  0E00               	movlw	0
  1906  000582  6E14               	movwf	_keyboard+5,c
  1907  000584                     l4207:
  1908                           
  1909                           ;app_device_keyboard.c: 449: }
  1910                           ;app_device_keyboard.c: 451: if(BUTTON_IsPressed(BUTTON_S4) == 1) {
  1911  000584  0E03               	movlw	3
  1912  000586  EC60  F009         	call	_BUTTON_IsPressed
  1913  00058A  06E8               	decf	wreg,f,c
  1914  00058C  A4D8               	btfss	status,2,c
  1915  00058E  D01A               	goto	l4219
  1916                           
  1917                           ;app_device_keyboard.c: 452: if(keyboard.waitingForRelease == 0) {
  1918  000590  5014               	movf	_keyboard+5,w,c
  1919  000592  A4D8               	btfss	status,2,c
  1920  000594  D019               	goto	l4221
  1921                           
  1922                           ;app_device_keyboard.c: 453: keyboard.waitingForRelease = 1;
  1923  000596  0E01               	movlw	1
  1924  000598  6E14               	movwf	_keyboard+5,c
  1925                           
  1926                           ;app_device_keyboard.c: 455: if( PORTAbits.RA3 ) {
  1927  00059A  A680               	btfss	3968,3,c	;volatile
  1928  00059C  D005               	goto	l78
  1929                           
  1930                           ;app_device_keyboard.c: 456: inputReport.keys[0] = keyCode[BUTTON_S4];
  1931  00059E  C092  F242         	movff	_keyCode+3,578
  1932                           
  1933                           ;app_device_keyboard.c: 457: inputReport.modifiers.value = keyModifire[BUTTON_S4];
  1934  0005A2  C063  F240         	movff	_keyModifire+3,576
  1935                           
  1936                           ;app_device_keyboard.c: 458: } else {
  1937  0005A6  D004               	goto	l4217
  1938  0005A8                     l78:
  1939                           
  1940                           ;app_device_keyboard.c: 459: inputReport.keys[0] = shiftedKeyCode[BUTTON_S4];
  1941  0005A8  C09E  F242         	movff	_shiftedKeyCode+3,578
  1942                           
  1943                           ;app_device_keyboard.c: 460: inputReport.modifiers.value = shiftedKeyModifire[BUTTON_S4]
      +                          ;
  1944  0005AC  C0AA  F240         	movff	_shiftedKeyModifire+3,576
  1945  0005B0                     l4217:
  1946                           
  1947                           ;app_device_keyboard.c: 461: }
  1948                           ;app_device_keyboard.c: 462: _delay((unsigned long)((20)*(12000000/4000.0)));
  1949  0005B0  0E4E               	movlw	78
  1950  0005B2  0100               	movlb	0	; () banked
  1951  0005B4  6FBB               	movwf	??_APP_KeyboardTasks& (0+255),b
  1952  0005B6  0EEB               	movlw	235
  1953  0005B8                     u5177:
  1954  0005B8  2EE8               	decfsz	wreg,f,c
  1955  0005BA  D7FE               	goto	u5177
  1956  0005BC  2FBB               	decfsz	??_APP_KeyboardTasks& (0+255),f,b
  1957  0005BE  D7FC               	goto	u5177
  1958  0005C0  F000               	nop	
  1959                           
  1960                           ;app_device_keyboard.c: 463: }
  1961                           ;app_device_keyboard.c: 464: } else {
  1962  0005C2  D002               	goto	l4221
  1963  0005C4                     l4219:
  1964                           
  1965                           ;app_device_keyboard.c: 465: keyboard.waitingForRelease = 0;
  1966  0005C4  0E00               	movlw	0
  1967  0005C6  6E14               	movwf	_keyboard+5,c
  1968  0005C8                     l4221:
  1969                           
  1970                           ;app_device_keyboard.c: 466: }
  1971                           ;app_device_keyboard.c: 468: if(BUTTON_IsPressed(BUTTON_S5) == 1) {
  1972  0005C8  0E04               	movlw	4
  1973  0005CA  EC60  F009         	call	_BUTTON_IsPressed
  1974  0005CE  06E8               	decf	wreg,f,c
  1975  0005D0  A4D8               	btfss	status,2,c
  1976  0005D2  D01A               	goto	l4233
  1977                           
  1978                           ;app_device_keyboard.c: 469: if(keyboard.waitingForRelease == 0) {
  1979  0005D4  5014               	movf	_keyboard+5,w,c
  1980  0005D6  A4D8               	btfss	status,2,c
  1981  0005D8  D019               	goto	l4235
  1982                           
  1983                           ;app_device_keyboard.c: 470: keyboard.waitingForRelease = 1;
  1984  0005DA  0E01               	movlw	1
  1985  0005DC  6E14               	movwf	_keyboard+5,c
  1986                           
  1987                           ;app_device_keyboard.c: 472: if( PORTAbits.RA3 ) {
  1988  0005DE  A680               	btfss	3968,3,c	;volatile
  1989  0005E0  D005               	goto	l83
  1990                           
  1991                           ;app_device_keyboard.c: 473: inputReport.keys[0] = keyCode[BUTTON_S5];
  1992  0005E2  C093  F242         	movff	_keyCode+4,578
  1993                           
  1994                           ;app_device_keyboard.c: 474: inputReport.modifiers.value = keyModifire[BUTTON_S5];
  1995  0005E6  C064  F240         	movff	_keyModifire+4,576
  1996                           
  1997                           ;app_device_keyboard.c: 475: } else {
  1998  0005EA  D004               	goto	l4231
  1999  0005EC                     l83:
  2000                           
  2001                           ;app_device_keyboard.c: 476: inputReport.keys[0] = shiftedKeyCode[BUTTON_S5];
  2002  0005EC  C09F  F242         	movff	_shiftedKeyCode+4,578
  2003                           
  2004                           ;app_device_keyboard.c: 477: inputReport.modifiers.value = shiftedKeyModifire[BUTTON_S5]
      +                          ;
  2005  0005F0  C0AB  F240         	movff	_shiftedKeyModifire+4,576
  2006  0005F4                     l4231:
  2007                           
  2008                           ;app_device_keyboard.c: 478: }
  2009                           ;app_device_keyboard.c: 479: _delay((unsigned long)((20)*(12000000/4000.0)));
  2010  0005F4  0E4E               	movlw	78
  2011  0005F6  0100               	movlb	0	; () banked
  2012  0005F8  6FBB               	movwf	??_APP_KeyboardTasks& (0+255),b
  2013  0005FA  0EEB               	movlw	235
  2014  0005FC                     u5187:
  2015  0005FC  2EE8               	decfsz	wreg,f,c
  2016  0005FE  D7FE               	goto	u5187
  2017  000600  2FBB               	decfsz	??_APP_KeyboardTasks& (0+255),f,b
  2018  000602  D7FC               	goto	u5187
  2019  000604  F000               	nop	
  2020                           
  2021                           ;app_device_keyboard.c: 480: }
  2022                           ;app_device_keyboard.c: 481: } else {
  2023  000606  D002               	goto	l4235
  2024  000608                     l4233:
  2025                           
  2026                           ;app_device_keyboard.c: 482: keyboard.waitingForRelease = 0;
  2027  000608  0E00               	movlw	0
  2028  00060A  6E14               	movwf	_keyboard+5,c
  2029  00060C                     l4235:
  2030                           
  2031                           ;app_device_keyboard.c: 483: }
  2032                           ;app_device_keyboard.c: 485: if(BUTTON_IsPressed(BUTTON_S6) == 1) {
  2033  00060C  0E05               	movlw	5
  2034  00060E  EC60  F009         	call	_BUTTON_IsPressed
  2035  000612  06E8               	decf	wreg,f,c
  2036  000614  A4D8               	btfss	status,2,c
  2037  000616  D01A               	goto	l4247
  2038                           
  2039                           ;app_device_keyboard.c: 486: if(keyboard.waitingForRelease == 0) {
  2040  000618  5014               	movf	_keyboard+5,w,c
  2041  00061A  A4D8               	btfss	status,2,c
  2042  00061C  D019               	goto	l4249
  2043                           
  2044                           ;app_device_keyboard.c: 487: keyboard.waitingForRelease = 1;
  2045  00061E  0E01               	movlw	1
  2046  000620  6E14               	movwf	_keyboard+5,c
  2047                           
  2048                           ;app_device_keyboard.c: 489: if( PORTAbits.RA3 ) {
  2049  000622  A680               	btfss	3968,3,c	;volatile
  2050  000624  D005               	goto	l88
  2051                           
  2052                           ;app_device_keyboard.c: 490: inputReport.keys[0] = keyCode[BUTTON_S6];
  2053  000626  C094  F242         	movff	_keyCode+5,578
  2054                           
  2055                           ;app_device_keyboard.c: 491: inputReport.modifiers.value = keyModifire[BUTTON_S6];
  2056  00062A  C065  F240         	movff	_keyModifire+5,576
  2057                           
  2058                           ;app_device_keyboard.c: 492: } else {
  2059  00062E  D004               	goto	l4245
  2060  000630                     l88:
  2061                           
  2062                           ;app_device_keyboard.c: 493: inputReport.keys[0] = shiftedKeyCode[BUTTON_S6];
  2063  000630  C0A0  F242         	movff	_shiftedKeyCode+5,578
  2064                           
  2065                           ;app_device_keyboard.c: 494: inputReport.modifiers.value = shiftedKeyModifire[BUTTON_S6]
      +                          ;
  2066  000634  C0AC  F240         	movff	_shiftedKeyModifire+5,576
  2067  000638                     l4245:
  2068                           
  2069                           ;app_device_keyboard.c: 495: }
  2070                           ;app_device_keyboard.c: 496: _delay((unsigned long)((20)*(12000000/4000.0)));
  2071  000638  0E4E               	movlw	78
  2072  00063A  0100               	movlb	0	; () banked
  2073  00063C  6FBB               	movwf	??_APP_KeyboardTasks& (0+255),b
  2074  00063E  0EEB               	movlw	235
  2075  000640                     u5197:
  2076  000640  2EE8               	decfsz	wreg,f,c
  2077  000642  D7FE               	goto	u5197
  2078  000644  2FBB               	decfsz	??_APP_KeyboardTasks& (0+255),f,b
  2079  000646  D7FC               	goto	u5197
  2080  000648  F000               	nop	
  2081                           
  2082                           ;app_device_keyboard.c: 497: }
  2083                           ;app_device_keyboard.c: 498: } else {
  2084  00064A  D002               	goto	l4249
  2085  00064C                     l4247:
  2086                           
  2087                           ;app_device_keyboard.c: 499: keyboard.waitingForRelease = 0;
  2088  00064C  0E00               	movlw	0
  2089  00064E  6E14               	movwf	_keyboard+5,c
  2090  000650                     l4249:
  2091                           
  2092                           ;app_device_keyboard.c: 500: }
  2093                           ;app_device_keyboard.c: 503: if(BUTTON_IsPressed(BUTTON_S7) == 1) {
  2094  000650  0E06               	movlw	6
  2095  000652  EC60  F009         	call	_BUTTON_IsPressed
  2096  000656  06E8               	decf	wreg,f,c
  2097  000658  A4D8               	btfss	status,2,c
  2098  00065A  D01A               	goto	l4261
  2099                           
  2100                           ;app_device_keyboard.c: 504: if(keyboard.waitingForRelease == 0) {
  2101  00065C  5014               	movf	_keyboard+5,w,c
  2102  00065E  A4D8               	btfss	status,2,c
  2103  000660  D019               	goto	l4263
  2104                           
  2105                           ;app_device_keyboard.c: 505: keyboard.waitingForRelease = 1;
  2106  000662  0E01               	movlw	1
  2107  000664  6E14               	movwf	_keyboard+5,c
  2108                           
  2109                           ;app_device_keyboard.c: 507: if( PORTAbits.RA3 ) {
  2110  000666  A680               	btfss	3968,3,c	;volatile
  2111  000668  D005               	goto	l93
  2112                           
  2113                           ;app_device_keyboard.c: 508: inputReport.keys[0] = keyCode[BUTTON_S7];
  2114  00066A  C095  F242         	movff	_keyCode+6,578
  2115                           
  2116                           ;app_device_keyboard.c: 509: inputReport.modifiers.value = keyModifire[BUTTON_S7];
  2117  00066E  C066  F240         	movff	_keyModifire+6,576
  2118                           
  2119                           ;app_device_keyboard.c: 510: } else {
  2120  000672  D004               	goto	l4259
  2121  000674                     l93:
  2122                           
  2123                           ;app_device_keyboard.c: 511: inputReport.keys[0] = shiftedKeyCode[BUTTON_S7];
  2124  000674  C0A1  F242         	movff	_shiftedKeyCode+6,578
  2125                           
  2126                           ;app_device_keyboard.c: 512: inputReport.modifiers.value = shiftedKeyModifire[BUTTON_S7]
      +                          ;
  2127  000678  C0AD  F240         	movff	_shiftedKeyModifire+6,576
  2128  00067C                     l4259:
  2129                           
  2130                           ;app_device_keyboard.c: 513: }
  2131                           ;app_device_keyboard.c: 514: _delay((unsigned long)((20)*(12000000/4000.0)));
  2132  00067C  0E4E               	movlw	78
  2133  00067E  0100               	movlb	0	; () banked
  2134  000680  6FBB               	movwf	??_APP_KeyboardTasks& (0+255),b
  2135  000682  0EEB               	movlw	235
  2136  000684                     u5207:
  2137  000684  2EE8               	decfsz	wreg,f,c
  2138  000686  D7FE               	goto	u5207
  2139  000688  2FBB               	decfsz	??_APP_KeyboardTasks& (0+255),f,b
  2140  00068A  D7FC               	goto	u5207
  2141  00068C  F000               	nop	
  2142                           
  2143                           ;app_device_keyboard.c: 515: }
  2144                           ;app_device_keyboard.c: 516: } else {
  2145  00068E  D002               	goto	l4263
  2146  000690                     l4261:
  2147                           
  2148                           ;app_device_keyboard.c: 517: keyboard.waitingForRelease = 0;
  2149  000690  0E00               	movlw	0
  2150  000692  6E14               	movwf	_keyboard+5,c
  2151  000694                     l4263:
  2152                           
  2153                           ;app_device_keyboard.c: 518: }
  2154                           ;app_device_keyboard.c: 520: if(BUTTON_IsPressed(BUTTON_S8) == 1) {
  2155  000694  0E07               	movlw	7
  2156  000696  EC60  F009         	call	_BUTTON_IsPressed
  2157  00069A  06E8               	decf	wreg,f,c
  2158  00069C  A4D8               	btfss	status,2,c
  2159  00069E  D01A               	goto	l4275
  2160                           
  2161                           ;app_device_keyboard.c: 521: if(keyboard.waitingForRelease == 0) {
  2162  0006A0  5014               	movf	_keyboard+5,w,c
  2163  0006A2  A4D8               	btfss	status,2,c
  2164  0006A4  D019               	goto	l4277
  2165                           
  2166                           ;app_device_keyboard.c: 522: keyboard.waitingForRelease = 1;
  2167  0006A6  0E01               	movlw	1
  2168  0006A8  6E14               	movwf	_keyboard+5,c
  2169                           
  2170                           ;app_device_keyboard.c: 524: if( PORTAbits.RA3 ) {
  2171  0006AA  A680               	btfss	3968,3,c	;volatile
  2172  0006AC  D005               	goto	l98
  2173                           
  2174                           ;app_device_keyboard.c: 525: inputReport.keys[0] = keyCode[BUTTON_S8];
  2175  0006AE  C096  F242         	movff	_keyCode+7,578
  2176                           
  2177                           ;app_device_keyboard.c: 526: inputReport.modifiers.value = keyModifire[BUTTON_S8];
  2178  0006B2  C067  F240         	movff	_keyModifire+7,576
  2179                           
  2180                           ;app_device_keyboard.c: 527: } else {
  2181  0006B6  D004               	goto	l4273
  2182  0006B8                     l98:
  2183                           
  2184                           ;app_device_keyboard.c: 528: inputReport.keys[0] = shiftedKeyCode[BUTTON_S8];
  2185  0006B8  C0A2  F242         	movff	_shiftedKeyCode+7,578
  2186                           
  2187                           ;app_device_keyboard.c: 529: inputReport.modifiers.value = shiftedKeyModifire[BUTTON_S8]
      +                          ;
  2188  0006BC  C0AE  F240         	movff	_shiftedKeyModifire+7,576
  2189  0006C0                     l4273:
  2190                           
  2191                           ;app_device_keyboard.c: 530: }
  2192                           ;app_device_keyboard.c: 531: _delay((unsigned long)((20)*(12000000/4000.0)));
  2193  0006C0  0E4E               	movlw	78
  2194  0006C2  0100               	movlb	0	; () banked
  2195  0006C4  6FBB               	movwf	??_APP_KeyboardTasks& (0+255),b
  2196  0006C6  0EEB               	movlw	235
  2197  0006C8                     u5217:
  2198  0006C8  2EE8               	decfsz	wreg,f,c
  2199  0006CA  D7FE               	goto	u5217
  2200  0006CC  2FBB               	decfsz	??_APP_KeyboardTasks& (0+255),f,b
  2201  0006CE  D7FC               	goto	u5217
  2202  0006D0  F000               	nop	
  2203                           
  2204                           ;app_device_keyboard.c: 532: }
  2205                           ;app_device_keyboard.c: 533: } else {
  2206  0006D2  D002               	goto	l4277
  2207  0006D4                     l4275:
  2208                           
  2209                           ;app_device_keyboard.c: 534: keyboard.waitingForRelease = 0;
  2210  0006D4  0E00               	movlw	0
  2211  0006D6  6E14               	movwf	_keyboard+5,c
  2212  0006D8                     l4277:
  2213                           
  2214                           ;app_device_keyboard.c: 535: }
  2215                           ;app_device_keyboard.c: 537: if(BUTTON_IsPressed(BUTTON_S9) == 1) {
  2216  0006D8  0E08               	movlw	8
  2217  0006DA  EC60  F009         	call	_BUTTON_IsPressed
  2218  0006DE  06E8               	decf	wreg,f,c
  2219  0006E0  A4D8               	btfss	status,2,c
  2220  0006E2  D01A               	goto	l4289
  2221                           
  2222                           ;app_device_keyboard.c: 538: if(keyboard.waitingForRelease == 0) {
  2223  0006E4  5014               	movf	_keyboard+5,w,c
  2224  0006E6  A4D8               	btfss	status,2,c
  2225  0006E8  D019               	goto	l4291
  2226                           
  2227                           ;app_device_keyboard.c: 539: keyboard.waitingForRelease = 1;
  2228  0006EA  0E01               	movlw	1
  2229  0006EC  6E14               	movwf	_keyboard+5,c
  2230                           
  2231                           ;app_device_keyboard.c: 541: if( PORTAbits.RA3 ) {
  2232  0006EE  A680               	btfss	3968,3,c	;volatile
  2233  0006F0  D005               	goto	l103
  2234                           
  2235                           ;app_device_keyboard.c: 542: inputReport.keys[0] = keyCode[BUTTON_S9];
  2236  0006F2  C097  F242         	movff	_keyCode+8,578
  2237                           
  2238                           ;app_device_keyboard.c: 543: inputReport.modifiers.value = keyModifire[BUTTON_S9];
  2239  0006F6  C068  F240         	movff	_keyModifire+8,576
  2240                           
  2241                           ;app_device_keyboard.c: 544: } else {
  2242  0006FA  D004               	goto	l4287
  2243  0006FC                     l103:
  2244                           
  2245                           ;app_device_keyboard.c: 545: inputReport.keys[0] = shiftedKeyCode[BUTTON_S9];
  2246  0006FC  C0A3  F242         	movff	_shiftedKeyCode+8,578
  2247                           
  2248                           ;app_device_keyboard.c: 546: inputReport.modifiers.value = shiftedKeyModifire[BUTTON_S9]
      +                          ;
  2249  000700  C0AF  F240         	movff	_shiftedKeyModifire+8,576
  2250  000704                     l4287:
  2251                           
  2252                           ;app_device_keyboard.c: 547: }
  2253                           ;app_device_keyboard.c: 548: _delay((unsigned long)((20)*(12000000/4000.0)));
  2254  000704  0E4E               	movlw	78
  2255  000706  0100               	movlb	0	; () banked
  2256  000708  6FBB               	movwf	??_APP_KeyboardTasks& (0+255),b
  2257  00070A  0EEB               	movlw	235
  2258  00070C                     u5227:
  2259  00070C  2EE8               	decfsz	wreg,f,c
  2260  00070E  D7FE               	goto	u5227
  2261  000710  2FBB               	decfsz	??_APP_KeyboardTasks& (0+255),f,b
  2262  000712  D7FC               	goto	u5227
  2263  000714  F000               	nop	
  2264                           
  2265                           ;app_device_keyboard.c: 549: }
  2266                           ;app_device_keyboard.c: 550: } else {
  2267  000716  D002               	goto	l4291
  2268  000718                     l4289:
  2269                           
  2270                           ;app_device_keyboard.c: 551: keyboard.waitingForRelease = 0;
  2271  000718  0E00               	movlw	0
  2272  00071A  6E14               	movwf	_keyboard+5,c
  2273  00071C                     l4291:
  2274                           
  2275                           ;app_device_keyboard.c: 552: }
  2276                           ;app_device_keyboard.c: 554: if(BUTTON_IsPressed(BUTTON_S10) == 1) {
  2277  00071C  0E09               	movlw	9
  2278  00071E  EC60  F009         	call	_BUTTON_IsPressed
  2279  000722  06E8               	decf	wreg,f,c
  2280  000724  A4D8               	btfss	status,2,c
  2281  000726  D01A               	goto	l4303
  2282                           
  2283                           ;app_device_keyboard.c: 555: if(keyboard.waitingForRelease == 0) {
  2284  000728  5014               	movf	_keyboard+5,w,c
  2285  00072A  A4D8               	btfss	status,2,c
  2286  00072C  D019               	goto	l4305
  2287                           
  2288                           ;app_device_keyboard.c: 556: keyboard.waitingForRelease = 1;
  2289  00072E  0E01               	movlw	1
  2290  000730  6E14               	movwf	_keyboard+5,c
  2291                           
  2292                           ;app_device_keyboard.c: 558: if( PORTAbits.RA3 ) {
  2293  000732  A680               	btfss	3968,3,c	;volatile
  2294  000734  D005               	goto	l108
  2295                           
  2296                           ;app_device_keyboard.c: 559: inputReport.keys[0] = keyCode[BUTTON_S10];
  2297  000736  C098  F242         	movff	_keyCode+9,578
  2298                           
  2299                           ;app_device_keyboard.c: 560: inputReport.modifiers.value = keyModifire[BUTTON_S10];
  2300  00073A  C069  F240         	movff	_keyModifire+9,576
  2301                           
  2302                           ;app_device_keyboard.c: 561: } else {
  2303  00073E  D004               	goto	l4301
  2304  000740                     l108:
  2305                           
  2306                           ;app_device_keyboard.c: 562: inputReport.keys[0] = shiftedKeyCode[BUTTON_S10];
  2307  000740  C0A4  F242         	movff	_shiftedKeyCode+9,578
  2308                           
  2309                           ;app_device_keyboard.c: 563: inputReport.modifiers.value = shiftedKeyModifire[BUTTON_S10
      +                          ];
  2310  000744  C0B0  F240         	movff	_shiftedKeyModifire+9,576
  2311  000748                     l4301:
  2312                           
  2313                           ;app_device_keyboard.c: 564: }
  2314                           ;app_device_keyboard.c: 565: _delay((unsigned long)((20)*(12000000/4000.0)));
  2315  000748  0E4E               	movlw	78
  2316  00074A  0100               	movlb	0	; () banked
  2317  00074C  6FBB               	movwf	??_APP_KeyboardTasks& (0+255),b
  2318  00074E  0EEB               	movlw	235
  2319  000750                     u5237:
  2320  000750  2EE8               	decfsz	wreg,f,c
  2321  000752  D7FE               	goto	u5237
  2322  000754  2FBB               	decfsz	??_APP_KeyboardTasks& (0+255),f,b
  2323  000756  D7FC               	goto	u5237
  2324  000758  F000               	nop	
  2325                           
  2326                           ;app_device_keyboard.c: 566: }
  2327                           ;app_device_keyboard.c: 567: } else {
  2328  00075A  D002               	goto	l4305
  2329  00075C                     l4303:
  2330                           
  2331                           ;app_device_keyboard.c: 568: keyboard.waitingForRelease = 0;
  2332  00075C  0E00               	movlw	0
  2333  00075E  6E14               	movwf	_keyboard+5,c
  2334  000760                     l4305:
  2335                           
  2336                           ;app_device_keyboard.c: 569: }
  2337                           ;app_device_keyboard.c: 572: if(BUTTON_IsPressed(BUTTON_S11) == 1) {
  2338  000760  0E0A               	movlw	10
  2339  000762  EC60  F009         	call	_BUTTON_IsPressed
  2340  000766  06E8               	decf	wreg,f,c
  2341  000768  A4D8               	btfss	status,2,c
  2342  00076A  D01A               	goto	l4317
  2343                           
  2344                           ;app_device_keyboard.c: 573: if(keyboard.waitingForRelease == 0) {
  2345  00076C  5014               	movf	_keyboard+5,w,c
  2346  00076E  A4D8               	btfss	status,2,c
  2347  000770  D019               	goto	l4319
  2348                           
  2349                           ;app_device_keyboard.c: 574: keyboard.waitingForRelease = 1;
  2350  000772  0E01               	movlw	1
  2351  000774  6E14               	movwf	_keyboard+5,c
  2352                           
  2353                           ;app_device_keyboard.c: 576: if( PORTAbits.RA3 ) {
  2354  000776  A680               	btfss	3968,3,c	;volatile
  2355  000778  D005               	goto	l113
  2356                           
  2357                           ;app_device_keyboard.c: 577: inputReport.keys[0] = keyCode[BUTTON_S11];
  2358  00077A  C099  F242         	movff	_keyCode+10,578
  2359                           
  2360                           ;app_device_keyboard.c: 578: inputReport.modifiers.value = keyModifire[BUTTON_S11];
  2361  00077E  C06A  F240         	movff	_keyModifire+10,576
  2362                           
  2363                           ;app_device_keyboard.c: 579: } else {
  2364  000782  D004               	goto	l4315
  2365  000784                     l113:
  2366                           
  2367                           ;app_device_keyboard.c: 580: inputReport.keys[0] = shiftedKeyCode[BUTTON_S11];
  2368  000784  C0A5  F242         	movff	_shiftedKeyCode+10,578
  2369                           
  2370                           ;app_device_keyboard.c: 581: inputReport.modifiers.value = shiftedKeyModifire[BUTTON_S11
      +                          ];
  2371  000788  C0B1  F240         	movff	_shiftedKeyModifire+10,576
  2372  00078C                     l4315:
  2373                           
  2374                           ;app_device_keyboard.c: 582: }
  2375                           ;app_device_keyboard.c: 583: _delay((unsigned long)((20)*(12000000/4000.0)));
  2376  00078C  0E4E               	movlw	78
  2377  00078E  0100               	movlb	0	; () banked
  2378  000790  6FBB               	movwf	??_APP_KeyboardTasks& (0+255),b
  2379  000792  0EEB               	movlw	235
  2380  000794                     u5247:
  2381  000794  2EE8               	decfsz	wreg,f,c
  2382  000796  D7FE               	goto	u5247
  2383  000798  2FBB               	decfsz	??_APP_KeyboardTasks& (0+255),f,b
  2384  00079A  D7FC               	goto	u5247
  2385  00079C  F000               	nop	
  2386                           
  2387                           ;app_device_keyboard.c: 584: }
  2388                           ;app_device_keyboard.c: 585: } else {
  2389  00079E  D002               	goto	l4319
  2390  0007A0                     l4317:
  2391                           
  2392                           ;app_device_keyboard.c: 586: keyboard.waitingForRelease = 0;
  2393  0007A0  0E00               	movlw	0
  2394  0007A2  6E14               	movwf	_keyboard+5,c
  2395  0007A4                     l4319:
  2396                           
  2397                           ;app_device_keyboard.c: 587: }
  2398                           ;app_device_keyboard.c: 589: if(BUTTON_IsPressed(BUTTON_S12) == 1) {
  2399  0007A4  0E0B               	movlw	11
  2400  0007A6  EC60  F009         	call	_BUTTON_IsPressed
  2401  0007AA  06E8               	decf	wreg,f,c
  2402  0007AC  A4D8               	btfss	status,2,c
  2403  0007AE  D01A               	goto	l4331
  2404                           
  2405                           ;app_device_keyboard.c: 590: if(keyboard.waitingForRelease == 0) {
  2406  0007B0  5014               	movf	_keyboard+5,w,c
  2407  0007B2  A4D8               	btfss	status,2,c
  2408  0007B4  D019               	goto	l120
  2409                           
  2410                           ;app_device_keyboard.c: 591: keyboard.waitingForRelease = 1;
  2411  0007B6  0E01               	movlw	1
  2412  0007B8  6E14               	movwf	_keyboard+5,c
  2413                           
  2414                           ;app_device_keyboard.c: 593: if( PORTAbits.RA3 ) {
  2415  0007BA  A680               	btfss	3968,3,c	;volatile
  2416  0007BC  D005               	goto	l118
  2417                           
  2418                           ;app_device_keyboard.c: 594: inputReport.keys[0] = keyCode[BUTTON_S12];
  2419  0007BE  C09A  F242         	movff	_keyCode+11,578
  2420                           
  2421                           ;app_device_keyboard.c: 595: inputReport.modifiers.value = keyModifire[BUTTON_S12];
  2422  0007C2  C06B  F240         	movff	_keyModifire+11,576
  2423                           
  2424                           ;app_device_keyboard.c: 596: } else {
  2425  0007C6  D004               	goto	l4329
  2426  0007C8                     l118:
  2427                           
  2428                           ;app_device_keyboard.c: 597: inputReport.keys[0] = shiftedKeyCode[BUTTON_S12];
  2429  0007C8  C0A6  F242         	movff	_shiftedKeyCode+11,578
  2430                           
  2431                           ;app_device_keyboard.c: 598: inputReport.modifiers.value = shiftedKeyModifire[BUTTON_S12
      +                          ];
  2432  0007CC  C0B2  F240         	movff	_shiftedKeyModifire+11,576
  2433  0007D0                     l4329:
  2434                           
  2435                           ;app_device_keyboard.c: 599: }
  2436                           ;app_device_keyboard.c: 600: _delay((unsigned long)((20)*(12000000/4000.0)));
  2437  0007D0  0E4E               	movlw	78
  2438  0007D2  0100               	movlb	0	; () banked
  2439  0007D4  6FBB               	movwf	??_APP_KeyboardTasks& (0+255),b
  2440  0007D6  0EEB               	movlw	235
  2441  0007D8                     u5257:
  2442  0007D8  2EE8               	decfsz	wreg,f,c
  2443  0007DA  D7FE               	goto	u5257
  2444  0007DC  2FBB               	decfsz	??_APP_KeyboardTasks& (0+255),f,b
  2445  0007DE  D7FC               	goto	u5257
  2446  0007E0  F000               	nop	
  2447                           
  2448                           ;app_device_keyboard.c: 601: }
  2449                           ;app_device_keyboard.c: 602: } else {
  2450  0007E2  D002               	goto	l120
  2451  0007E4                     l4331:
  2452                           
  2453                           ;app_device_keyboard.c: 603: keyboard.waitingForRelease = 0;
  2454  0007E4  0E00               	movlw	0
  2455  0007E6  6E14               	movwf	_keyboard+5,c
  2456  0007E8                     l120:
  2457                           
  2458                           ;app_device_keyboard.c: 604: }
  2459                           ;app_device_keyboard.c: 608: needToSendNewReportPacket = 0;
  2460  0007E8  0E00               	movlw	0
  2461  0007EA  0100               	movlb	0	; () banked
  2462  0007EC  6FBD               	movwf	APP_KeyboardTasks@needToSendNewReportPacket& (0+255),b
  2463                           
  2464                           ;app_device_keyboard.c: 609: for(i = 0; i < sizeof(inputReport); i++)
  2465  0007EE  0E00               	movlw	0
  2466  0007F0  0100               	movlb	0	; () banked
  2467  0007F2  6FC0               	movwf	APP_KeyboardTasks@i& (0+255),b
  2468  0007F4                     l4333:
  2469                           
  2470                           ; BSR set to: 0
  2471  0007F4  0E07               	movlw	7
  2472  0007F6  0100               	movlb	0	; () banked
  2473  0007F8  65C0               	cpfsgt	APP_KeyboardTasks@i& (0+255),b
  2474  0007FA  D001               	goto	l4337
  2475  0007FC  D01D               	goto	l4345
  2476  0007FE                     l4337:
  2477                           
  2478                           ; BSR set to: 0
  2479                           ;app_device_keyboard.c: 610: {
  2480                           ;app_device_keyboard.c: 611: if(*((uint8_t*)&oldInputReport + i) != *((uint8_t*)&inputRe
      +                          port + i))
  2481  0007FE  0100               	movlb	0	; () banked
  2482  000800  51C0               	movf	APP_KeyboardTasks@i& (0+255),w,b
  2483  000802  0D01               	mullw	1
  2484  000804  0E40               	movlw	64
  2485  000806  24F3               	addwf	prodl,w,c
  2486  000808  6ED9               	movwf	fsr2l,c
  2487  00080A  0E02               	movlw	2
  2488  00080C  20F4               	addwfc	prodh,w,c
  2489  00080E  6EDA               	movwf	fsr2h,c
  2490  000810  0100               	movlb	0	; () banked
  2491  000812  51C0               	movf	APP_KeyboardTasks@i& (0+255),w,b
  2492  000814  0D01               	mullw	1
  2493  000816  0E6C               	movlw	low _oldInputReport
  2494  000818  24F3               	addwf	prodl,w,c
  2495  00081A  6EE1               	movwf	fsr1l,c
  2496  00081C  0E00               	movlw	high _oldInputReport
  2497  00081E  20F4               	addwfc	prodh,w,c
  2498  000820  6EE2               	movwf	fsr1h,c
  2499  000822  50DE               	movf	postinc2,w,c
  2500  000824  18E6               	xorwf	postinc1,w,c
  2501  000826  B4D8               	btfsc	status,2,c
  2502  000828  D004               	goto	l4341
  2503                           
  2504                           ; BSR set to: 0
  2505                           ;app_device_keyboard.c: 612: {
  2506                           ;app_device_keyboard.c: 613: needToSendNewReportPacket = 1;
  2507  00082A  0E01               	movlw	1
  2508  00082C  0100               	movlb	0	; () banked
  2509  00082E  6FBD               	movwf	APP_KeyboardTasks@needToSendNewReportPacket& (0+255),b
  2510                           
  2511                           ;app_device_keyboard.c: 614: break;
  2512  000830  D003               	goto	l4345
  2513  000832                     l4341:
  2514                           
  2515                           ; BSR set to: 0
  2516  000832  0100               	movlb	0	; () banked
  2517  000834  2BC0               	incf	APP_KeyboardTasks@i& (0+255),f,b
  2518  000836  D7DE               	goto	l4333
  2519  000838                     l4345:
  2520                           
  2521                           ; BSR set to: 0
  2522                           ;app_device_keyboard.c: 615: }
  2523                           ;app_device_keyboard.c: 616: }
  2524                           ;app_device_keyboard.c: 621: if(keyboardIdleRate != 0)
  2525  000838  0100               	movlb	0	; () banked
  2526  00083A  5180               	movf	_keyboardIdleRate& (0+255),w,b
  2527  00083C  0100               	movlb	0	; () banked
  2528  00083E  1181               	iorwf	(_keyboardIdleRate+1)& (0+255),w,b
  2529  000840  B4D8               	btfsc	status,2,c
  2530  000842  D013               	goto	l4351
  2531                           
  2532                           ; BSR set to: 0
  2533                           ;app_device_keyboard.c: 622: {
  2534                           ;app_device_keyboard.c: 624: if(TimeDeltaMilliseconds >= keyboardIdleRate)
  2535  000844  0100               	movlb	0	; () banked
  2536  000846  5180               	movf	_keyboardIdleRate& (0+255),w,b
  2537  000848  0100               	movlb	0	; () banked
  2538  00084A  5DBE               	subwf	APP_KeyboardTasks@TimeDeltaMilliseconds& (0+255),w,b
  2539  00084C  0100               	movlb	0	; () banked
  2540  00084E  51BF               	movf	(APP_KeyboardTasks@TimeDeltaMilliseconds+1)& (0+255),w,b
  2541  000850  0A80               	xorlw	128
  2542  000852  0100               	movlb	0	; () banked
  2543  000854  6FBB               	movwf	??_APP_KeyboardTasks& (0+255),b
  2544  000856  0100               	movlb	0	; () banked
  2545  000858  5181               	movf	(_keyboardIdleRate+1)& (0+255),w,b
  2546  00085A  0A80               	xorlw	128
  2547  00085C  0100               	movlb	0	; () banked
  2548  00085E  59BB               	subwfb	??_APP_KeyboardTasks& (0+255),w,b
  2549  000860  A0D8               	btfss	status,0,c
  2550  000862  D003               	goto	l4351
  2551                           
  2552                           ; BSR set to: 0
  2553                           ;app_device_keyboard.c: 625: {
  2554                           ;app_device_keyboard.c: 626: needToSendNewReportPacket = 1;
  2555  000864  0E01               	movlw	1
  2556  000866  0100               	movlb	0	; () banked
  2557  000868  6FBD               	movwf	APP_KeyboardTasks@needToSendNewReportPacket& (0+255),b
  2558  00086A                     l4351:
  2559                           
  2560                           ; BSR set to: 0
  2561                           ;app_device_keyboard.c: 627: }
  2562                           ;app_device_keyboard.c: 628: }
  2563                           ;app_device_keyboard.c: 632: if(needToSendNewReportPacket == 1)
  2564  00086A  0100               	movlb	0	; () banked
  2565  00086C  05BD               	decf	APP_KeyboardTasks@needToSendNewReportPacket& (0+255),w,b
  2566  00086E  A4D8               	btfss	status,2,c
  2567  000870  D020               	goto	l4359
  2568                           
  2569                           ; BSR set to: 0
  2570                           ;app_device_keyboard.c: 633: {
  2571                           ;app_device_keyboard.c: 637: oldInputReport = inputReport;
  2572  000872  EE22 F040          	lfsr	2,576
  2573  000876  EE10  F06C         	lfsr	1,_oldInputReport
  2574  00087A  0E07               	movlw	7
  2575  00087C                     u5021:
  2576  00087C  CFDB FFE3          	movff	plusw2,plusw1
  2577  000880  06E8               	decf	wreg,f,c
  2578  000882  E2FC               	bc	u5021
  2579                           
  2580                           ; BSR set to: 0
  2581                           ;app_device_keyboard.c: 640: keyboard.lastINTransmission = USBTransferOnePacket(1,1,(uin
      +                          t8_t*)&inputReport,sizeof(inputReport));
  2582  000884  0E01               	movlw	1
  2583  000886  0100               	movlb	0	; () banked
  2584  000888  6FB3               	movwf	USBTransferOnePacket@dir& (0+255),b
  2585  00088A  0E40               	movlw	64
  2586  00088C  0100               	movlb	0	; () banked
  2587  00088E  6FB4               	movwf	USBTransferOnePacket@data& (0+255),b
  2588  000890  0E02               	movlw	2
  2589  000892  0100               	movlb	0	; () banked
  2590  000894  6FB5               	movwf	(USBTransferOnePacket@data+1)& (0+255),b
  2591  000896  0E08               	movlw	8
  2592  000898  0100               	movlb	0	; () banked
  2593  00089A  6FB6               	movwf	USBTransferOnePacket@len& (0+255),b
  2594  00089C  0E01               	movlw	1
  2595  00089E  EC99  F00B         	call	_USBTransferOnePacket
  2596  0008A2  C0B3  F00F         	movff	?_USBTransferOnePacket,_keyboard
  2597  0008A6  C0B4  F010         	movff	?_USBTransferOnePacket+1,_keyboard+1
  2598                           
  2599                           ;app_device_keyboard.c: 641: OldSOFCount = LocalSOFCount;
  2600  0008AA  C07C  F07E         	movff	_LocalSOFCount,_OldSOFCount
  2601  0008AE  C07D  F07F         	movff	_LocalSOFCount+1,_OldSOFCount+1
  2602  0008B2                     l4359:
  2603                           
  2604                           ;app_device_keyboard.c: 642: }
  2605                           ;app_device_keyboard.c: 644: }
  2606                           ;app_device_keyboard.c: 653: if(((keyboard.lastOUTTransmission != 0x0000) && ((*(volatil
      +                          e uint8_t*)keyboard.lastOUTTransmission & 0x80) != 0x00)) == 0)
  2607  0008B2  5011               	movf	_keyboard+2,w,c
  2608  0008B4  1012               	iorwf	_keyboard+3,w,c
  2609  0008B6  B4D8               	btfsc	status,2,c
  2610  0008B8  D006               	goto	l4363
  2611  0008BA  C011  FFD9         	movff	_keyboard+2,fsr2l
  2612  0008BE  C012  FFDA         	movff	_keyboard+3,fsr2h
  2613  0008C2  BEDF               	btfsc	indf2,7,c
  2614  0008C4  0012               	return	
  2615  0008C6                     l4363:
  2616                           
  2617                           ;app_device_keyboard.c: 654: {
  2618                           ;app_device_keyboard.c: 655: APP_KeyboardProcessOutputReport();
  2619  0008C6  ECD4  F010         	call	_APP_KeyboardProcessOutputReport	;wreg free
  2620                           
  2621                           ;app_device_keyboard.c: 657: keyboard.lastOUTTransmission = USBTransferOnePacket(1,0,(ui
      +                          nt8_t*)&outputReport,sizeof(outputReport));
  2622  0008CA  0E00               	movlw	0
  2623  0008CC  0100               	movlb	0	; () banked
  2624  0008CE  6FB3               	movwf	USBTransferOnePacket@dir& (0+255),b
  2625  0008D0  0E48               	movlw	72
  2626  0008D2  0100               	movlb	0	; () banked
  2627  0008D4  6FB4               	movwf	USBTransferOnePacket@data& (0+255),b
  2628  0008D6  0E02               	movlw	2
  2629  0008D8  0100               	movlb	0	; () banked
  2630  0008DA  6FB5               	movwf	(USBTransferOnePacket@data+1)& (0+255),b
  2631  0008DC  0E08               	movlw	8
  2632  0008DE  0100               	movlb	0	; () banked
  2633  0008E0  6FB6               	movwf	USBTransferOnePacket@len& (0+255),b
  2634  0008E2  0E01               	movlw	1
  2635  0008E4  EC99  F00B         	call	_USBTransferOnePacket
  2636  0008E8  C0B3  F011         	movff	?_USBTransferOnePacket,_keyboard+2
  2637  0008EC  C0B4  F012         	movff	?_USBTransferOnePacket+1,_keyboard+3
  2638  0008F0  0012               	return	
  2639  0008F2                     __end_of_APP_KeyboardTasks:
  2640                           	opt stack 0
  2641                           tblptru	equ	0xFF8
  2642                           tblptrh	equ	0xFF7
  2643                           tblptrl	equ	0xFF6
  2644                           tablat	equ	0xFF5
  2645                           prodh	equ	0xFF4
  2646                           prodl	equ	0xFF3
  2647                           intcon	equ	0xFF2
  2648                           postinc0	equ	0xFEE
  2649                           wreg	equ	0xFE8
  2650                           postinc1	equ	0xFE6
  2651                           postdec1	equ	0xFE5
  2652                           plusw1	equ	0xFE3
  2653                           fsr1h	equ	0xFE2
  2654                           fsr1l	equ	0xFE1
  2655                           indf2	equ	0xFDF
  2656                           postinc2	equ	0xFDE
  2657                           postdec2	equ	0xFDD
  2658                           plusw2	equ	0xFDB
  2659                           fsr2h	equ	0xFDA
  2660                           fsr2l	equ	0xFD9
  2661                           status	equ	0xFD8
  2662                           
  2663 ;; *************** function _memset *****************
  2664 ;; Defined at:
  2665 ;;		line 8 in file "/Applications/microchip/xc8/v1.37/sources/common/memset.c"
  2666 ;; Parameters:    Size  Location     Type
  2667 ;;  p1              2    0[BANK0 ] PTR void 
  2668 ;;		 -> USBAlternateInterface(1), BDT(32), UEP1(1), inputReport(8), 
  2669 ;;  c               2    2[BANK0 ] int 
  2670 ;;  n               2    4[BANK0 ] unsigned int 
  2671 ;; Auto vars:     Size  Location     Type
  2672 ;;  p               2    6[BANK0 ] PTR unsigned char 
  2673 ;;		 -> USBAlternateInterface(1), BDT(32), UEP1(1), inputReport(8), 
  2674 ;; Return value:  Size  Location     Type
  2675 ;;                  2    0[BANK0 ] PTR void 
  2676 ;; Registers used:
  2677 ;;		wreg, fsr2l, fsr2h, status,2, status,0
  2678 ;; Tracked objects:
  2679 ;;		On entry : 0/0
  2680 ;;		On exit  : 0/0
  2681 ;;		Unchanged: 0/0
  2682 ;; Data sizes:     COMRAM   BANK0   BANK1 BANK2hh BANK2hl
  2683 ;;      Params:         0       6       0       0       0
  2684 ;;      Locals:         0       2       0       0       0
  2685 ;;      Temps:          0       0       0       0       0
  2686 ;;      Totals:         0       8       0       0       0
  2687 ;;Total ram usage:        8 bytes
  2688 ;; Hardware stack levels used:    1
  2689 ;; Hardware stack levels required when called:   10
  2690 ;; This function calls:
  2691 ;;		Nothing
  2692 ;; This function is called by:
  2693 ;;		_APP_KeyboardTasks
  2694 ;;		_USBDeviceInit
  2695 ;; This function uses a non-reentrant model
  2696 ;;
  2697                           
  2698                           	psect	text6
  2699  001FE4                     __ptext6:
  2700                           	opt stack 0
  2701  001FE4                     _memset:
  2702                           	opt stack 19
  2703                           
  2704                           ;incstack = 0
  2705  001FE4  C0B3  F0B9         	movff	memset@p1,memset@p
  2706  001FE8  C0B4  F0BA         	movff	memset@p1+1,memset@p+1
  2707  001FEC  D009               	goto	l4129
  2708  001FEE                     l4125:
  2709  001FEE  C0B9  FFD9         	movff	memset@p,fsr2l
  2710  001FF2  C0BA  FFDA         	movff	memset@p+1,fsr2h
  2711  001FF6  C0B5  FFDF         	movff	memset@c,indf2
  2712  001FFA  0100               	movlb	0	; () banked
  2713  001FFC  4BB9               	infsnz	memset@p& (0+255),f,b
  2714  001FFE  2BBA               	incf	(memset@p+1)& (0+255),f,b
  2715  002000                     l4129:
  2716  002000  0100               	movlb	0	; () banked
  2717  002002  07B7               	decf	memset@n& (0+255),f,b
  2718  002004  A0D8               	btfss	status,0,c
  2719  002006  07B8               	decf	(memset@n+1)& (0+255),f,b
  2720  002008  0100               	movlb	0	; () banked
  2721  00200A  29B7               	incf	memset@n& (0+255),w,b
  2722  00200C  E1F0               	bnz	l4125
  2723  00200E  0100               	movlb	0	; () banked
  2724  002010  29B8               	incf	(memset@n+1)& (0+255),w,b
  2725  002012  B4D8               	btfsc	status,2,c
  2726  002014  0012               	return	
  2727  002016  D7EB               	goto	l4125
  2728  002018                     __end_of_memset:
  2729                           	opt stack 0
  2730                           tblptru	equ	0xFF8
  2731                           tblptrh	equ	0xFF7
  2732                           tblptrl	equ	0xFF6
  2733                           tablat	equ	0xFF5
  2734                           prodh	equ	0xFF4
  2735                           prodl	equ	0xFF3
  2736                           intcon	equ	0xFF2
  2737                           postinc0	equ	0xFEE
  2738                           wreg	equ	0xFE8
  2739                           postinc1	equ	0xFE6
  2740                           postdec1	equ	0xFE5
  2741                           plusw1	equ	0xFE3
  2742                           fsr1h	equ	0xFE2
  2743                           fsr1l	equ	0xFE1
  2744                           indf2	equ	0xFDF
  2745                           postinc2	equ	0xFDE
  2746                           postdec2	equ	0xFDD
  2747                           plusw2	equ	0xFDB
  2748                           fsr2h	equ	0xFDA
  2749                           fsr2l	equ	0xFD9
  2750                           status	equ	0xFD8
  2751                           
  2752 ;; *************** function _USBTransferOnePacket *****************
  2753 ;; Defined at:
  2754 ;;		line 1013 in file "usb_device.c"
  2755 ;; Parameters:    Size  Location     Type
  2756 ;;  ep              1    wreg     unsigned char 
  2757 ;;  dir             1    0[BANK0 ] unsigned char 
  2758 ;;  data            2    1[BANK0 ] PTR unsigned char 
  2759 ;;		 -> inputReport(8), outputReport(8), 
  2760 ;;  len             1    3[BANK0 ] unsigned char 
  2761 ;; Auto vars:     Size  Location     Type
  2762 ;;  ep              1    4[BANK0 ] unsigned char 
  2763 ;;  handle          2    5[BANK0 ] PTR volatile struct __BD
  2764 ;;		 -> BDT(32), NULL(0), 
  2765 ;; Return value:  Size  Location     Type
  2766 ;;                  2    0[BANK0 ] PTR void 
  2767 ;; Registers used:
  2768 ;;		wreg, fsr2l, fsr2h, status,2, status,0, prodl, prodh
  2769 ;; Tracked objects:
  2770 ;;		On entry : 0/0
  2771 ;;		On exit  : 0/0
  2772 ;;		Unchanged: 0/0
  2773 ;; Data sizes:     COMRAM   BANK0   BANK1 BANK2hh BANK2hl
  2774 ;;      Params:         0       4       0       0       0
  2775 ;;      Locals:         0       3       0       0       0
  2776 ;;      Temps:          0       0       0       0       0
  2777 ;;      Totals:         0       7       0       0       0
  2778 ;;Total ram usage:        7 bytes
  2779 ;; Hardware stack levels used:    1
  2780 ;; Hardware stack levels required when called:   10
  2781 ;; This function calls:
  2782 ;;		Nothing
  2783 ;; This function is called by:
  2784 ;;		_APP_KeyboardTasks
  2785 ;; This function uses a non-reentrant model
  2786 ;;
  2787                           
  2788                           	psect	text7
  2789  001732                     __ptext7:
  2790                           	opt stack 0
  2791  001732                     _USBTransferOnePacket:
  2792                           	opt stack 19
  2793                           
  2794                           ; BSR set to: 0
  2795                           ;incstack = 0
  2796                           ;USBTransferOnePacket@ep stored from wreg
  2797  001732  0100               	movlb	0	; () banked
  2798  001734  6FB7               	movwf	USBTransferOnePacket@ep& (0+255),b
  2799                           
  2800                           ;usb_device.c: 1015: volatile BDT_ENTRY* handle;
  2801                           ;usb_device.c: 1018: if(dir != 0)
  2802  001736  0100               	movlb	0	; () banked
  2803  001738  51B3               	movf	USBTransferOnePacket@dir& (0+255),w,b
  2804  00173A  0100               	movlb	0	; () banked
  2805  00173C  B4D8               	btfsc	status,2,c
  2806  00173E  D008               	goto	l4097
  2807                           
  2808                           ; BSR set to: 0
  2809                           ;usb_device.c: 1019: {
  2810                           ;usb_device.c: 1021: handle = pBDTEntryIn[ep];
  2811  001740  0100               	movlb	0	; () banked
  2812  001742  51B7               	movf	USBTransferOnePacket@ep& (0+255),w,b
  2813  001744  0D02               	mullw	2
  2814  001746  0E15               	movlw	low _pBDTEntryIn
  2815  001748  24F3               	addwf	prodl,w,c
  2816  00174A  6ED9               	movwf	fsr2l,c
  2817  00174C  0E00               	movlw	high _pBDTEntryIn
  2818  00174E  D007               	goto	L1
  2819  001750                     l4097:
  2820                           
  2821                           ; BSR set to: 0
  2822                           ;usb_device.c: 1023: else
  2823                           ;usb_device.c: 1024: {
  2824                           ;usb_device.c: 1026: handle = pBDTEntryOut[ep];
  2825  001750  0100               	movlb	0	; () banked
  2826  001752  51B7               	movf	USBTransferOnePacket@ep& (0+255),w,b
  2827  001754  0D02               	mullw	2
  2828  001756  0E78               	movlw	low _pBDTEntryOut
  2829  001758  24F3               	addwf	prodl,w,c
  2830  00175A  6ED9               	movwf	fsr2l,c
  2831  00175C  0E00               	movlw	high _pBDTEntryOut
  2832  00175E                     L1:
  2833  00175E  20F4               	addwfc	prodh,w,c
  2834  001760  6EDA               	movwf	fsr2h,c
  2835  001762  CFDE F0B8          	movff	postinc2,USBTransferOnePacket@handle
  2836  001766  CFDD F0B9          	movff	postdec2,USBTransferOnePacket@handle+1
  2837                           
  2838                           ; BSR set to: 0
  2839                           ;usb_device.c: 1027: }
  2840                           ;usb_device.c: 1031: if(handle == 0)
  2841                           
  2842                           ; BSR set to: 0
  2843  00176A  0100               	movlb	0	; () banked
  2844  00176C  51B8               	movf	USBTransferOnePacket@handle& (0+255),w,b
  2845  00176E  0100               	movlb	0	; () banked
  2846  001770  11B9               	iorwf	(USBTransferOnePacket@handle+1)& (0+255),w,b
  2847  001772  A4D8               	btfss	status,2,c
  2848  001774  D007               	goto	l4105
  2849                           
  2850                           ; BSR set to: 0
  2851                           ;usb_device.c: 1032: {
  2852                           ;usb_device.c: 1033: return 0;
  2853  001776  0E00               	movlw	0
  2854  001778  0100               	movlb	0	; () banked
  2855  00177A  6FB3               	movwf	?_USBTransferOnePacket& (0+255),b
  2856  00177C  0E00               	movlw	0
  2857  00177E  0100               	movlb	0	; () banked
  2858  001780  6FB4               	movwf	(?_USBTransferOnePacket+1)& (0+255),b
  2859                           
  2860                           ; BSR set to: 0
  2861  001782  0012               	return	
  2862  001784                     l4105:
  2863                           
  2864                           ; BSR set to: 0
  2865                           ;usb_device.c: 1034: }
  2866                           ;usb_device.c: 1047: handle->ADR = ((uint16_t)(data));
  2867  001784  0100               	movlb	0	; () banked
  2868  001786  EE20 F002          	lfsr	2,2
  2869  00178A  51B8               	movf	USBTransferOnePacket@handle& (0+255),w,b
  2870  00178C  26D9               	addwf	fsr2l,f,c
  2871  00178E  51B9               	movf	(USBTransferOnePacket@handle+1)& (0+255),w,b
  2872  001790  22DA               	addwfc	fsr2h,f,c
  2873  001792  C0B4  FFDE         	movff	USBTransferOnePacket@data,postinc2
  2874  001796  C0B5  FFDD         	movff	USBTransferOnePacket@data+1,postdec2
  2875                           
  2876                           ;usb_device.c: 1048: handle->CNT = len;
  2877  00179A  0100               	movlb	0	; () banked
  2878  00179C  EE20 F001          	lfsr	2,1
  2879  0017A0  51B8               	movf	USBTransferOnePacket@handle& (0+255),w,b
  2880  0017A2  26D9               	addwf	fsr2l,f,c
  2881  0017A4  51B9               	movf	(USBTransferOnePacket@handle+1)& (0+255),w,b
  2882  0017A6  22DA               	addwfc	fsr2h,f,c
  2883  0017A8  C0B6  FFDF         	movff	USBTransferOnePacket@len,indf2
  2884                           
  2885                           ; BSR set to: 0
  2886                           ;usb_device.c: 1049: handle->STAT.Val &= 0x40;
  2887  0017AC  C0B8  FFD9         	movff	USBTransferOnePacket@handle,fsr2l
  2888  0017B0  C0B9  FFDA         	movff	USBTransferOnePacket@handle+1,fsr2h
  2889  0017B4  0E40               	movlw	64
  2890  0017B6  16DF               	andwf	indf2,f,c
  2891                           
  2892                           ; BSR set to: 0
  2893                           ;usb_device.c: 1050: handle->STAT.Val |= (0x08 & 0x08);
  2894  0017B8  C0B8  FFD9         	movff	USBTransferOnePacket@handle,fsr2l
  2895  0017BC  C0B9  FFDA         	movff	USBTransferOnePacket@handle+1,fsr2h
  2896  0017C0  0E00               	movlw	0
  2897  0017C2  86DB               	bsf	plusw2,3,c
  2898                           
  2899                           ; BSR set to: 0
  2900                           ;usb_device.c: 1051: handle->STAT.Val |= 0x80;
  2901  0017C4  C0B8  FFD9         	movff	USBTransferOnePacket@handle,fsr2l
  2902  0017C8  C0B9  FFDA         	movff	USBTransferOnePacket@handle+1,fsr2h
  2903  0017CC  0E00               	movlw	0
  2904  0017CE  8EDB               	bsf	plusw2,7,c
  2905                           
  2906                           ; BSR set to: 0
  2907                           ;usb_device.c: 1054: if(dir != 0)
  2908  0017D0  0100               	movlb	0	; () banked
  2909  0017D2  51B3               	movf	USBTransferOnePacket@dir& (0+255),w,b
  2910  0017D4  0100               	movlb	0	; () banked
  2911  0017D6  B4D8               	btfsc	status,2,c
  2912  0017D8  D008               	goto	l4117
  2913                           
  2914                           ; BSR set to: 0
  2915                           ;usb_device.c: 1055: {
  2916                           ;usb_device.c: 1057: {((uint8_t_VAL*)&pBDTEntryIn[ep])->Val ^= 0x0004;};
  2917  0017DA  0100               	movlb	0	; () banked
  2918  0017DC  51B7               	movf	USBTransferOnePacket@ep& (0+255),w,b
  2919  0017DE  0D02               	mullw	2
  2920  0017E0  0E15               	movlw	low _pBDTEntryIn
  2921  0017E2  24F3               	addwf	prodl,w,c
  2922  0017E4  6ED9               	movwf	fsr2l,c
  2923  0017E6  0E00               	movlw	high _pBDTEntryIn
  2924  0017E8  D007               	goto	L2
  2925  0017EA                     l4117:
  2926                           
  2927                           ; BSR set to: 0
  2928                           ;usb_device.c: 1059: else
  2929                           ;usb_device.c: 1060: {
  2930                           ;usb_device.c: 1062: {((uint8_t_VAL*)&pBDTEntryOut[ep])->Val ^= 0x0004;};
  2931  0017EA  0100               	movlb	0	; () banked
  2932  0017EC  51B7               	movf	USBTransferOnePacket@ep& (0+255),w,b
  2933  0017EE  0D02               	mullw	2
  2934  0017F0  0E78               	movlw	low _pBDTEntryOut
  2935  0017F2  24F3               	addwf	prodl,w,c
  2936  0017F4  6ED9               	movwf	fsr2l,c
  2937  0017F6  0E00               	movlw	high _pBDTEntryOut
  2938  0017F8                     L2:
  2939  0017F8  20F4               	addwfc	prodh,w,c
  2940  0017FA  6EDA               	movwf	fsr2h,c
  2941  0017FC  0E04               	movlw	4
  2942  0017FE  1ADF               	xorwf	indf2,f,c
  2943                           
  2944                           ; BSR set to: 0
  2945                           ;usb_device.c: 1063: }
  2946                           ;usb_device.c: 1064: return (void*)handle;
  2947                           
  2948                           ; BSR set to: 0
  2949  001800  C0B8  F0B3         	movff	USBTransferOnePacket@handle,?_USBTransferOnePacket
  2950  001804  C0B9  F0B4         	movff	USBTransferOnePacket@handle+1,?_USBTransferOnePacket+1
  2951  001808  0012               	return	
  2952  00180A                     __end_of_USBTransferOnePacket:
  2953                           	opt stack 0
  2954                           tblptru	equ	0xFF8
  2955                           tblptrh	equ	0xFF7
  2956                           tblptrl	equ	0xFF6
  2957                           tablat	equ	0xFF5
  2958                           prodh	equ	0xFF4
  2959                           prodl	equ	0xFF3
  2960                           intcon	equ	0xFF2
  2961                           postinc0	equ	0xFEE
  2962                           wreg	equ	0xFE8
  2963                           postinc1	equ	0xFE6
  2964                           postdec1	equ	0xFE5
  2965                           plusw1	equ	0xFE3
  2966                           fsr1h	equ	0xFE2
  2967                           fsr1l	equ	0xFE1
  2968                           indf2	equ	0xFDF
  2969                           postinc2	equ	0xFDE
  2970                           postdec2	equ	0xFDD
  2971                           plusw2	equ	0xFDB
  2972                           fsr2h	equ	0xFDA
  2973                           fsr2l	equ	0xFD9
  2974                           status	equ	0xFD8
  2975                           
  2976 ;; *************** function _BUTTON_IsPressed *****************
  2977 ;; Defined at:
  2978 ;;		line 66 in file "buttons.c"
  2979 ;; Parameters:    Size  Location     Type
  2980 ;;  button          1    wreg     enum E3600
  2981 ;; Auto vars:     Size  Location     Type
  2982 ;;  button          1    0[BANK0 ] enum E3600
  2983 ;; Return value:  Size  Location     Type
  2984 ;;                  1    wreg      unsigned char 
  2985 ;; Registers used:
  2986 ;;		wreg, status,2, status,0
  2987 ;; Tracked objects:
  2988 ;;		On entry : 0/0
  2989 ;;		On exit  : 0/0
  2990 ;;		Unchanged: 0/0
  2991 ;; Data sizes:     COMRAM   BANK0   BANK1 BANK2hh BANK2hl
  2992 ;;      Params:         0       0       0       0       0
  2993 ;;      Locals:         0       1       0       0       0
  2994 ;;      Temps:          0       0       0       0       0
  2995 ;;      Totals:         0       1       0       0       0
  2996 ;;Total ram usage:        1 bytes
  2997 ;; Hardware stack levels used:    1
  2998 ;; Hardware stack levels required when called:   10
  2999 ;; This function calls:
  3000 ;;		Nothing
  3001 ;; This function is called by:
  3002 ;;		_APP_KeyboardTasks
  3003 ;;		_main
  3004 ;; This function uses a non-reentrant model
  3005 ;;
  3006                           
  3007                           	psect	text8
  3008  0012C0                     __ptext8:
  3009                           	opt stack 0
  3010  0012C0                     _BUTTON_IsPressed:
  3011                           	opt stack 20
  3012                           
  3013                           ; BSR set to: 0
  3014                           ;incstack = 0
  3015                           ;BUTTON_IsPressed@button stored from wreg
  3016  0012C0  0100               	movlb	0	; () banked
  3017  0012C2  6FB3               	movwf	BUTTON_IsPressed@button& (0+255),b
  3018                           
  3019                           ;buttons.c: 68: switch(button)
  3020  0012C4  D04A               	goto	l4139
  3021  0012C6                     l160:
  3022                           
  3023                           ; BSR set to: 0
  3024                           ;buttons.c: 71: return ( (PORTCbits.RC0 == 0) ? 1 : 0);
  3025  0012C6  B082               	btfsc	3970,0,c	;volatile
  3026  0012C8  D002               	goto	u4310
  3027  0012CA  0E01               	movlw	1
  3028  0012CC  0012               	return	
  3029  0012CE                     u4310:
  3030  0012CE  0E00               	movlw	0
  3031  0012D0  0012               	return	
  3032  0012D2                     l162:
  3033                           
  3034                           ; BSR set to: 0
  3035                           ;buttons.c: 74: return ( (PORTCbits.RC4 == 0) ? 1 : 0);
  3036  0012D2  B882               	btfsc	3970,4,c	;volatile
  3037  0012D4  D002               	goto	u4330
  3038  0012D6  0E01               	movlw	1
  3039  0012D8  0012               	return	
  3040  0012DA                     u4330:
  3041  0012DA  0E00               	movlw	0
  3042  0012DC  0012               	return	
  3043  0012DE                     l163:
  3044                           
  3045                           ; BSR set to: 0
  3046                           ;buttons.c: 77: return ( (PORTBbits.RB7 == 0) ? 1 : 0);
  3047  0012DE  BE81               	btfsc	3969,7,c	;volatile
  3048  0012E0  D002               	goto	u4350
  3049  0012E2  0E01               	movlw	1
  3050  0012E4  0012               	return	
  3051  0012E6                     u4350:
  3052  0012E6  0E00               	movlw	0
  3053  0012E8  0012               	return	
  3054  0012EA                     l164:
  3055                           
  3056                           ; BSR set to: 0
  3057                           ;buttons.c: 80: return ( (PORTCbits.RC1 == 0) ? 1 : 0);
  3058  0012EA  B282               	btfsc	3970,1,c	;volatile
  3059  0012EC  D002               	goto	u4370
  3060  0012EE  0E01               	movlw	1
  3061  0012F0  0012               	return	
  3062  0012F2                     u4370:
  3063  0012F2  0E00               	movlw	0
  3064  0012F4  0012               	return	
  3065  0012F6                     l165:
  3066                           
  3067                           ; BSR set to: 0
  3068                           ;buttons.c: 83: return ( (PORTCbits.RC5 == 0) ? 1 : 0);
  3069  0012F6  BA82               	btfsc	3970,5,c	;volatile
  3070  0012F8  D002               	goto	u4390
  3071  0012FA  0E01               	movlw	1
  3072  0012FC  0012               	return	
  3073  0012FE                     u4390:
  3074  0012FE  0E00               	movlw	0
  3075  001300  0012               	return	
  3076  001302                     l166:
  3077                           
  3078                           ; BSR set to: 0
  3079                           ;buttons.c: 86: return ( (PORTBbits.RB6 == 0) ? 1 : 0);
  3080  001302  BC81               	btfsc	3969,6,c	;volatile
  3081  001304  D002               	goto	u4410
  3082  001306  0E01               	movlw	1
  3083  001308  0012               	return	
  3084  00130A                     u4410:
  3085  00130A  0E00               	movlw	0
  3086  00130C  0012               	return	
  3087  00130E                     l167:
  3088                           
  3089                           ; BSR set to: 0
  3090                           ;buttons.c: 89: return ( (PORTCbits.RC2 == 0) ? 1 : 0);
  3091  00130E  B482               	btfsc	3970,2,c	;volatile
  3092  001310  D002               	goto	u4430
  3093  001312  0E01               	movlw	1
  3094  001314  0012               	return	
  3095  001316                     u4430:
  3096  001316  0E00               	movlw	0
  3097  001318  0012               	return	
  3098  00131A                     l168:
  3099                           
  3100                           ; BSR set to: 0
  3101                           ;buttons.c: 92: return ( (PORTCbits.RC6 == 0) ? 1 : 0);
  3102  00131A  BC82               	btfsc	3970,6,c	;volatile
  3103  00131C  D002               	goto	u4450
  3104  00131E  0E01               	movlw	1
  3105  001320  0012               	return	
  3106  001322                     u4450:
  3107  001322  0E00               	movlw	0
  3108  001324  0012               	return	
  3109  001326                     l169:
  3110                           
  3111                           ; BSR set to: 0
  3112                           ;buttons.c: 95: return ( (PORTBbits.RB5 == 0) ? 1 : 0);
  3113  001326  BA81               	btfsc	3969,5,c	;volatile
  3114  001328  D002               	goto	u4470
  3115  00132A  0E01               	movlw	1
  3116  00132C  0012               	return	
  3117  00132E                     u4470:
  3118  00132E  0E00               	movlw	0
  3119  001330  0012               	return	
  3120  001332                     l170:
  3121                           
  3122                           ; BSR set to: 0
  3123                           ;buttons.c: 98: return ( (PORTCbits.RC3 == 0) ? 1 : 0);
  3124  001332  B682               	btfsc	3970,3,c	;volatile
  3125  001334  D002               	goto	u4490
  3126  001336  0E01               	movlw	1
  3127  001338  0012               	return	
  3128  00133A                     u4490:
  3129  00133A  0E00               	movlw	0
  3130  00133C  0012               	return	
  3131  00133E                     l171:
  3132                           
  3133                           ; BSR set to: 0
  3134                           ;buttons.c: 101: return ( (PORTCbits.RC7 == 0) ? 1 : 0);
  3135  00133E  BE82               	btfsc	3970,7,c	;volatile
  3136  001340  D002               	goto	u4510
  3137  001342  0E01               	movlw	1
  3138  001344  0012               	return	
  3139  001346                     u4510:
  3140  001346  0E00               	movlw	0
  3141  001348  0012               	return	
  3142  00134A                     l172:
  3143                           
  3144                           ; BSR set to: 0
  3145                           ;buttons.c: 104: return ( (PORTBbits.RB4 == 0) ? 1 : 0);
  3146  00134A  B881               	btfsc	3969,4,c	;volatile
  3147  00134C  D002               	goto	u4530
  3148  00134E  0E01               	movlw	1
  3149  001350  0012               	return	
  3150  001352                     u4530:
  3151  001352  0E00               	movlw	0
  3152  001354  0012               	return	
  3153  001356                     l4133:
  3154                           
  3155                           ; BSR set to: 0
  3156                           ;buttons.c: 107: return 0;
  3157  001356  0E00               	movlw	0
  3158                           
  3159                           ; BSR set to: 0
  3160  001358  0012               	return	
  3161  00135A                     l4139:
  3162  00135A  0100               	movlb	0	; () banked
  3163  00135C  51B3               	movf	BUTTON_IsPressed@button& (0+255),w,b
  3164                           
  3165                           ; Switch size 1, requested type "space"
  3166                           ; Number of cases is 13, Range of values is 0 to 13
  3167                           ; switch strategies available:
  3168                           ; Name         Instructions Cycles
  3169                           ; simple_byte           40    21 (average)
  3170                           ;	Chosen strategy is simple_byte
  3171  00135E  0A00               	xorlw	0	; case 0
  3172  001360  B4D8               	btfsc	status,2,c
  3173  001362  D7B1               	goto	l160
  3174  001364  0A01               	xorlw	1	; case 1
  3175  001366  B4D8               	btfsc	status,2,c
  3176  001368  D7B4               	goto	l162
  3177  00136A  0A03               	xorlw	3	; case 2
  3178  00136C  B4D8               	btfsc	status,2,c
  3179  00136E  D7B7               	goto	l163
  3180  001370  0A01               	xorlw	1	; case 3
  3181  001372  B4D8               	btfsc	status,2,c
  3182  001374  D7BA               	goto	l164
  3183  001376  0A07               	xorlw	7	; case 4
  3184  001378  B4D8               	btfsc	status,2,c
  3185  00137A  D7BD               	goto	l165
  3186  00137C  0A01               	xorlw	1	; case 5
  3187  00137E  B4D8               	btfsc	status,2,c
  3188  001380  D7C0               	goto	l166
  3189  001382  0A03               	xorlw	3	; case 6
  3190  001384  B4D8               	btfsc	status,2,c
  3191  001386  D7C3               	goto	l167
  3192  001388  0A01               	xorlw	1	; case 7
  3193  00138A  B4D8               	btfsc	status,2,c
  3194  00138C  D7C6               	goto	l168
  3195  00138E  0A0F               	xorlw	15	; case 8
  3196  001390  B4D8               	btfsc	status,2,c
  3197  001392  D7C9               	goto	l169
  3198  001394  0A01               	xorlw	1	; case 9
  3199  001396  B4D8               	btfsc	status,2,c
  3200  001398  D7CC               	goto	l170
  3201  00139A  0A03               	xorlw	3	; case 10
  3202  00139C  B4D8               	btfsc	status,2,c
  3203  00139E  D7CF               	goto	l171
  3204  0013A0  0A01               	xorlw	1	; case 11
  3205  0013A2  B4D8               	btfsc	status,2,c
  3206  0013A4  D7D2               	goto	l172
  3207  0013A6  0A06               	xorlw	6	; case 13
  3208  0013A8  B4D8               	btfsc	status,2,c
  3209  0013AA  D7D5               	goto	l4133
  3210                           
  3211                           ; BSR set to: 0
  3212                           ;buttons.c: 110: return 0;
  3213                           
  3214                           ; BSR set to: 0
  3215  0013AC  0E00               	movlw	0
  3216  0013AE  0012               	return	
  3217  0013B0                     __end_of_BUTTON_IsPressed:
  3218                           	opt stack 0
  3219                           tblptru	equ	0xFF8
  3220                           tblptrh	equ	0xFF7
  3221                           tblptrl	equ	0xFF6
  3222                           tablat	equ	0xFF5
  3223                           prodh	equ	0xFF4
  3224                           prodl	equ	0xFF3
  3225                           intcon	equ	0xFF2
  3226                           postinc0	equ	0xFEE
  3227                           wreg	equ	0xFE8
  3228                           postinc1	equ	0xFE6
  3229                           postdec1	equ	0xFE5
  3230                           plusw1	equ	0xFE3
  3231                           fsr1h	equ	0xFE2
  3232                           fsr1l	equ	0xFE1
  3233                           indf2	equ	0xFDF
  3234                           postinc2	equ	0xFDE
  3235                           postdec2	equ	0xFDD
  3236                           plusw2	equ	0xFDB
  3237                           fsr2h	equ	0xFDA
  3238                           fsr2l	equ	0xFD9
  3239                           status	equ	0xFD8
  3240                           
  3241 ;; *************** function _APP_KeyboardProcessOutputReport *****************
  3242 ;; Defined at:
  3243 ;;		line 663 in file "app_device_keyboard.c"
  3244 ;; Parameters:    Size  Location     Type
  3245 ;;		None
  3246 ;; Auto vars:     Size  Location     Type
  3247 ;;		None
  3248 ;; Return value:  Size  Location     Type
  3249 ;;                  1    wreg      void 
  3250 ;; Registers used:
  3251 ;;		wreg
  3252 ;; Tracked objects:
  3253 ;;		On entry : 0/0
  3254 ;;		On exit  : 0/0
  3255 ;;		Unchanged: 0/0
  3256 ;; Data sizes:     COMRAM   BANK0   BANK1 BANK2hh BANK2hl
  3257 ;;      Params:         0       0       0       0       0
  3258 ;;      Locals:         0       0       0       0       0
  3259 ;;      Temps:          0       0       0       0       0
  3260 ;;      Totals:         0       0       0       0       0
  3261 ;;Total ram usage:        0 bytes
  3262 ;; Hardware stack levels used:    1
  3263 ;; Hardware stack levels required when called:   10
  3264 ;; This function calls:
  3265 ;;		Nothing
  3266 ;; This function is called by:
  3267 ;;		_APP_KeyboardTasks
  3268 ;; This function uses a non-reentrant model
  3269 ;;
  3270                           
  3271                           	psect	text9
  3272  0021A8                     __ptext9:
  3273                           	opt stack 0
  3274  0021A8                     _APP_KeyboardProcessOutputReport:
  3275                           	opt stack 19
  3276                           
  3277                           ;app_device_keyboard.c: 677: if( outputReport.value[0] == 0xff){
  3278                           
  3279                           ; BSR set to: 0
  3280                           ;incstack = 0
  3281  0021A8  0102               	movlb	2	; () banked
  3282  0021AA  5148               	movf	72,w,b	;volatile
  3283  0021AC  0012               	return	
  3284  0021AE                     __end_of_APP_KeyboardProcessOutputReport:
  3285                           	opt stack 0
  3286                           tblptru	equ	0xFF8
  3287                           tblptrh	equ	0xFF7
  3288                           tblptrl	equ	0xFF6
  3289                           tablat	equ	0xFF5
  3290                           prodh	equ	0xFF4
  3291                           prodl	equ	0xFF3
  3292                           intcon	equ	0xFF2
  3293                           postinc0	equ	0xFEE
  3294                           wreg	equ	0xFE8
  3295                           postinc1	equ	0xFE6
  3296                           postdec1	equ	0xFE5
  3297                           plusw1	equ	0xFE3
  3298                           fsr1h	equ	0xFE2
  3299                           fsr1l	equ	0xFE1
  3300                           indf2	equ	0xFDF
  3301                           postinc2	equ	0xFDE
  3302                           postdec2	equ	0xFDD
  3303                           plusw2	equ	0xFDB
  3304                           fsr2h	equ	0xFDA
  3305                           fsr2l	equ	0xFD9
  3306                           status	equ	0xFD8
  3307                           
  3308 ;; *************** function _SYS_InterruptHigh *****************
  3309 ;; Defined at:
  3310 ;;		line 92 in file "system.c"
  3311 ;; Parameters:    Size  Location     Type
  3312 ;;		None
  3313 ;; Auto vars:     Size  Location     Type
  3314 ;;		None
  3315 ;; Return value:  Size  Location     Type
  3316 ;;                  1    wreg      void 
  3317 ;; Registers used:
  3318 ;;		wreg, fsr1l, fsr1h, fsr2l, fsr2h, status,2, status,0, pclat, tosl, tblptrl, tblptrh, tblptru, prodl, prodh, cstack
  3319 ;; Tracked objects:
  3320 ;;		On entry : 0/0
  3321 ;;		On exit  : 0/0
  3322 ;;		Unchanged: 0/0
  3323 ;; Data sizes:     COMRAM   BANK0   BANK1 BANK2hh BANK2hl
  3324 ;;      Params:         0       0       0       0       0
  3325 ;;      Locals:         0       0       0       0       0
  3326 ;;      Temps:         14       0       0       0       0
  3327 ;;      Totals:        14       0       0       0       0
  3328 ;;Total ram usage:       14 bytes
  3329 ;; Hardware stack levels used:    1
  3330 ;; Hardware stack levels required when called:    9
  3331 ;; This function calls:
  3332 ;;		_USBDeviceTasks
  3333 ;; This function is called by:
  3334 ;;		Interrupt level 2
  3335 ;; This function uses a non-reentrant model
  3336 ;;
  3337                           
  3338                           	psect	intcode
  3339  000008                     __pintcode:
  3340                           	opt stack 0
  3341  000008                     _SYS_InterruptHigh:
  3342                           	opt stack 19
  3343                           
  3344                           ; BSR set to: 2
  3345                           ;incstack = 0
  3346  000008  8255               	bsf	btemp,1,c	;set compiler interrupt flag (level 2)
  3347  00000A  CFFA F047          	movff	pclath,??_SYS_InterruptHigh
  3348  00000E  CFFB F048          	movff	pclatu,??_SYS_InterruptHigh+1
  3349  000012  CFE9 F049          	movff	fsr0l,??_SYS_InterruptHigh+2
  3350  000016  CFEA F04A          	movff	fsr0h,??_SYS_InterruptHigh+3
  3351  00001A  CFE1 F04B          	movff	fsr1l,??_SYS_InterruptHigh+4
  3352  00001E  CFE2 F04C          	movff	fsr1h,??_SYS_InterruptHigh+5
  3353  000022  CFD9 F04D          	movff	fsr2l,??_SYS_InterruptHigh+6
  3354  000026  CFDA F04E          	movff	fsr2h,??_SYS_InterruptHigh+7
  3355  00002A  CFF3 F04F          	movff	prodl,??_SYS_InterruptHigh+8
  3356  00002E  CFF4 F050          	movff	prodh,??_SYS_InterruptHigh+9
  3357  000032  CFF6 F051          	movff	tblptrl,??_SYS_InterruptHigh+10
  3358  000036  CFF7 F052          	movff	tblptrh,??_SYS_InterruptHigh+11
  3359  00003A  CFF8 F053          	movff	tblptru,??_SYS_InterruptHigh+12
  3360  00003E  CFF5 F054          	movff	tablat,??_SYS_InterruptHigh+13
  3361                           
  3362                           ;system.c: 95: USBDeviceTasks();
  3363  000042  EC1D  F007         	call	_USBDeviceTasks	;wreg free
  3364  000046  C054  FFF5         	movff	??_SYS_InterruptHigh+13,tablat
  3365  00004A  C053  FFF8         	movff	??_SYS_InterruptHigh+12,tblptru
  3366  00004E  C052  FFF7         	movff	??_SYS_InterruptHigh+11,tblptrh
  3367  000052  C051  FFF6         	movff	??_SYS_InterruptHigh+10,tblptrl
  3368  000056  C050  FFF4         	movff	??_SYS_InterruptHigh+9,prodh
  3369  00005A  C04F  FFF3         	movff	??_SYS_InterruptHigh+8,prodl
  3370  00005E  C04E  FFDA         	movff	??_SYS_InterruptHigh+7,fsr2h
  3371  000062  C04D  FFD9         	movff	??_SYS_InterruptHigh+6,fsr2l
  3372  000066  C04C  FFE2         	movff	??_SYS_InterruptHigh+5,fsr1h
  3373  00006A  C04B  FFE1         	movff	??_SYS_InterruptHigh+4,fsr1l
  3374  00006E  C04A  FFEA         	movff	??_SYS_InterruptHigh+3,fsr0h
  3375  000072  C049  FFE9         	movff	??_SYS_InterruptHigh+2,fsr0l
  3376  000076  C048  FFFB         	movff	??_SYS_InterruptHigh+1,pclatu
  3377  00007A  C047  FFFA         	movff	??_SYS_InterruptHigh,pclath
  3378  00007E  9255               	bcf	btemp,1,c	;clear compiler interrupt flag (level 2)
  3379  000080  0011               	retfie		f
  3380  000082                     __end_of_SYS_InterruptHigh:
  3381                           	opt stack 0
  3382                           pclatu	equ	0xFFB
  3383                           pclath	equ	0xFFA
  3384                           tblptru	equ	0xFF8
  3385                           tblptrh	equ	0xFF7
  3386                           tblptrl	equ	0xFF6
  3387                           tablat	equ	0xFF5
  3388                           prodh	equ	0xFF4
  3389                           prodl	equ	0xFF3
  3390                           intcon	equ	0xFF2
  3391                           postinc0	equ	0xFEE
  3392                           fsr0h	equ	0xFEA
  3393                           fsr0l	equ	0xFE9
  3394                           wreg	equ	0xFE8
  3395                           postinc1	equ	0xFE6
  3396                           postdec1	equ	0xFE5
  3397                           plusw1	equ	0xFE3
  3398                           fsr1h	equ	0xFE2
  3399                           fsr1l	equ	0xFE1
  3400                           indf2	equ	0xFDF
  3401                           postinc2	equ	0xFDE
  3402                           postdec2	equ	0xFDD
  3403                           plusw2	equ	0xFDB
  3404                           fsr2h	equ	0xFDA
  3405                           fsr2l	equ	0xFD9
  3406                           status	equ	0xFD8
  3407                           
  3408 ;; *************** function _USBDeviceTasks *****************
  3409 ;; Defined at:
  3410 ;;		line 495 in file "usb_device.c"
  3411 ;; Parameters:    Size  Location     Type
  3412 ;;		None
  3413 ;; Auto vars:     Size  Location     Type
  3414 ;;  i               1   27[COMRAM] unsigned char 
  3415 ;; Return value:  Size  Location     Type
  3416 ;;                  1    wreg      void 
  3417 ;; Registers used:
  3418 ;;		wreg, fsr1l, fsr1h, fsr2l, fsr2h, status,2, status,0, pclat, tosl, tblptrl, tblptrh, tblptru, prodl, prodh, cstack
  3419 ;; Tracked objects:
  3420 ;;		On entry : 0/0
  3421 ;;		On exit  : 0/0
  3422 ;;		Unchanged: 0/0
  3423 ;; Data sizes:     COMRAM   BANK0   BANK1 BANK2hh BANK2hl
  3424 ;;      Params:         0       0       0       0       0
  3425 ;;      Locals:         1       0       0       0       0
  3426 ;;      Temps:          0       0       0       0       0
  3427 ;;      Totals:         1       0       0       0       0
  3428 ;;Total ram usage:        1 bytes
  3429 ;; Hardware stack levels used:    1
  3430 ;; Hardware stack levels required when called:    8
  3431 ;; This function calls:
  3432 ;;		_USBCtrlEPAllowStatusStage
  3433 ;;		_USBCtrlEPService
  3434 ;;		_USBIncrement1msInternalTimers
  3435 ;;		_USBStallHandler
  3436 ;;		_USBSuspend
  3437 ;;		_USBWakeFromSuspend
  3438 ;;		_USER_USB_CALLBACK_EVENT_HANDLER
  3439 ;;		i2_USBDeviceInit
  3440 ;; This function is called by:
  3441 ;;		_SYS_InterruptHigh
  3442 ;; This function uses a non-reentrant model
  3443 ;;
  3444                           
  3445                           	psect	text11
  3446  000E3A                     __ptext11:
  3447                           	opt stack 0
  3448  000E3A                     _USBDeviceTasks:
  3449                           	opt stack 19
  3450                           
  3451                           ;usb_device.c: 497: uint8_t i;
  3452                           ;usb_device.c: 608: if(USBDeviceState == ATTACHED_STATE)
  3453                           
  3454                           ;incstack = 0
  3455  000E3A  0424               	decf	_USBDeviceState,w,c	;volatile
  3456  000E3C  B4D8               	btfsc	status,2,c
  3457                           
  3458                           ;usb_device.c: 609: {
  3459                           ;usb_device.c: 619: if(!UCONbits.SE0)
  3460  000E3E  BA64               	btfsc	3940,5,c	;volatile
  3461  000E40  D006               	goto	i2l3943
  3462                           
  3463                           ;usb_device.c: 620: {
  3464                           ;usb_device.c: 626: {UIR = 0;};
  3465  000E42  0E00               	movlw	0
  3466  000E44  6E62               	movwf	3938,c	;volatile
  3467                           
  3468                           ;usb_device.c: 632: UIEbits.URSTIE = 1;
  3469  000E46  8060               	bsf	3936,0,c	;volatile
  3470                           
  3471                           ;usb_device.c: 633: UIEbits.IDLEIE = 1;
  3472  000E48  8860               	bsf	3936,4,c	;volatile
  3473                           
  3474                           ;usb_device.c: 634: USBDeviceState = POWERED_STATE;
  3475  000E4A  0E02               	movlw	2
  3476  000E4C  6E24               	movwf	_USBDeviceState,c	;volatile
  3477  000E4E                     i2l3943:
  3478                           
  3479                           ;usb_device.c: 635: }
  3480                           ;usb_device.c: 636: }
  3481                           ;usb_device.c: 652: if(UIRbits.ACTVIF && UIEbits.ACTVIE)
  3482  000E4E  B462               	btfsc	3938,2,c	;volatile
  3483  000E50  A460               	btfss	3936,2,c	;volatile
  3484  000E52  D003               	goto	i2l3951
  3485                           
  3486                           ;usb_device.c: 653: {
  3487                           ;usb_device.c: 654: (UIR &= 0xFB);
  3488  000E54  9462               	bcf	3938,2,c	;volatile
  3489                           
  3490                           ;usb_device.c: 658: USBWakeFromSuspend();
  3491  000E56  ECD7  F00F         	call	_USBWakeFromSuspend	;wreg free
  3492  000E5A                     i2l3951:
  3493                           
  3494                           ;usb_device.c: 660: }
  3495                           ;usb_device.c: 665: if(UCONbits.SUSPND==1)
  3496  000E5A  A264               	btfss	3940,1,c	;volatile
  3497  000E5C  D002               	goto	i2l403
  3498                           
  3499                           ;usb_device.c: 666: {
  3500                           ;usb_device.c: 667: {PIR2bits.USBIF = 0;};
  3501  000E5E  94A1               	bcf	4001,2,c	;volatile
  3502                           
  3503                           ;usb_device.c: 668: return;
  3504  000E60  0012               	return	
  3505  000E62                     i2l403:
  3506                           
  3507                           ;usb_device.c: 669: }
  3508                           ;usb_device.c: 681: if(UIRbits.URSTIF && UIEbits.URSTIE)
  3509  000E62  B062               	btfsc	3938,0,c	;volatile
  3510  000E64  A060               	btfss	3936,0,c	;volatile
  3511  000E66  D006               	goto	i2l3965
  3512                           
  3513                           ;usb_device.c: 682: {
  3514                           ;usb_device.c: 683: USBDeviceInit();
  3515  000E68  EC72  F006         	call	i2_USBDeviceInit	;wreg free
  3516                           
  3517                           ;usb_device.c: 687: {PIE2bits.USBIE = 1;};
  3518  000E6C  84A0               	bsf	4000,2,c	;volatile
  3519                           
  3520                           ;usb_device.c: 689: USBDeviceState = DEFAULT_STATE;
  3521  000E6E  0E04               	movlw	4
  3522  000E70  6E24               	movwf	_USBDeviceState,c	;volatile
  3523                           
  3524                           ;usb_device.c: 699: (UIR &= 0xFE);
  3525  000E72  9062               	bcf	3938,0,c	;volatile
  3526  000E74                     i2l3965:
  3527                           
  3528                           ;usb_device.c: 700: }
  3529                           ;usb_device.c: 705: if(UIRbits.IDLEIF && UIEbits.IDLEIE)
  3530  000E74  B862               	btfsc	3938,4,c	;volatile
  3531  000E76  A860               	btfss	3936,4,c	;volatile
  3532  000E78  D002               	goto	i2l3971
  3533                           
  3534                           ;usb_device.c: 706: {
  3535                           ;usb_device.c: 712: USBSuspend();
  3536  000E7A  EC25  F010         	call	_USBSuspend	;wreg free
  3537  000E7E                     i2l3971:
  3538                           
  3539                           ;usb_device.c: 714: }
  3540                           ;usb_device.c: 726: if(UIRbits.SOFIF)
  3541  000E7E  AC62               	btfss	3938,6,c	;volatile
  3542  000E80  D01E               	goto	i2l3989
  3543                           
  3544                           ;usb_device.c: 727: {
  3545                           ;usb_device.c: 729: if(UIEbits.SOFIE)
  3546  000E82  AC60               	btfss	3936,6,c	;volatile
  3547  000E84  D00E               	goto	i2l3977
  3548                           
  3549                           ;usb_device.c: 730: {
  3550                           ;usb_device.c: 731: USER_USB_CALLBACK_EVENT_HANDLER(EVENT_SOF,0,1);
  3551  000E86  0E00               	movlw	0
  3552  000E88  6E38               	movwf	USER_USB_CALLBACK_EVENT_HANDLER@event+1,c
  3553  000E8A  0E73               	movlw	115
  3554  000E8C  6E37               	movwf	USER_USB_CALLBACK_EVENT_HANDLER@event,c
  3555  000E8E  0E00               	movlw	0
  3556  000E90  6E39               	movwf	USER_USB_CALLBACK_EVENT_HANDLER@pdata,c
  3557  000E92  0E00               	movlw	0
  3558  000E94  6E3A               	movwf	USER_USB_CALLBACK_EVENT_HANDLER@pdata+1,c
  3559  000E96  0E00               	movlw	0
  3560  000E98  6E3C               	movwf	USER_USB_CALLBACK_EVENT_HANDLER@size+1,c
  3561  000E9A  0E01               	movlw	1
  3562  000E9C  6E3B               	movwf	USER_USB_CALLBACK_EVENT_HANDLER@size,c
  3563  000E9E  EC69  F00E         	call	_USER_USB_CALLBACK_EVENT_HANDLER	;wreg free
  3564  000EA2                     i2l3977:
  3565                           
  3566                           ;usb_device.c: 732: }
  3567                           ;usb_device.c: 733: (UIR &= 0xBF);
  3568  000EA2  9C62               	bcf	3938,6,c	;volatile
  3569                           
  3570                           ;usb_device.c: 736: USBIncrement1msInternalTimers();
  3571  000EA4  EC67  F010         	call	_USBIncrement1msInternalTimers	;wreg free
  3572                           
  3573                           ;usb_device.c: 753: if(USBStatusStageTimeoutCounter != 0u)
  3574  000EA8  0100               	movlb	0	; () banked
  3575  000EAA  518B               	movf	_USBStatusStageTimeoutCounter& (0+255),w,b	;volatile
  3576  000EAC  B4D8               	btfsc	status,2,c
  3577  000EAE  D002               	goto	i2l3985
  3578                           
  3579                           ; BSR set to: 0
  3580                           ;usb_device.c: 754: {
  3581                           ;usb_device.c: 755: USBStatusStageTimeoutCounter--;
  3582  000EB0  0100               	movlb	0	; () banked
  3583  000EB2  078B               	decf	_USBStatusStageTimeoutCounter& (0+255),f,b	;volatile
  3584  000EB4                     i2l3985:
  3585                           
  3586                           ; BSR set to: 0
  3587                           ;usb_device.c: 756: }
  3588                           ;usb_device.c: 762: if(USBStatusStageTimeoutCounter == 0)
  3589  000EB4  0100               	movlb	0	; () banked
  3590  000EB6  518B               	movf	_USBStatusStageTimeoutCounter& (0+255),w,b	;volatile
  3591  000EB8  B4D8               	btfsc	status,2,c
  3592                           
  3593                           ; BSR set to: 0
  3594                           ;usb_device.c: 763: {
  3595                           ;usb_device.c: 764: USBCtrlEPAllowStatusStage();
  3596  000EBA  EC05  F00C         	call	_USBCtrlEPAllowStatusStage	;wreg free
  3597  000EBE                     i2l3989:
  3598                           
  3599                           ;usb_device.c: 765: }
  3600                           ;usb_device.c: 767: }
  3601                           ;usb_device.c: 769: if(UIRbits.STALLIF && UIEbits.STALLIE)
  3602  000EBE  BA62               	btfsc	3938,5,c	;volatile
  3603  000EC0  AA60               	btfss	3936,5,c	;volatile
  3604  000EC2  D002               	goto	i2l3995
  3605                           
  3606                           ;usb_device.c: 770: {
  3607                           ;usb_device.c: 771: USBStallHandler();
  3608  000EC4  EC76  F00F         	call	_USBStallHandler	;wreg free
  3609  000EC8                     i2l3995:
  3610                           
  3611                           ;usb_device.c: 772: }
  3612                           ;usb_device.c: 774: if(UIRbits.UERRIF && UIEbits.UERRIE)
  3613  000EC8  B262               	btfsc	3938,1,c	;volatile
  3614  000ECA  A260               	btfss	3936,1,c	;volatile
  3615  000ECC  D010               	goto	i2l4003
  3616                           
  3617                           ;usb_device.c: 775: {
  3618                           ;usb_device.c: 776: USER_USB_CALLBACK_EVENT_HANDLER(EVENT_BUS_ERROR,0,1);
  3619  000ECE  0E7F               	movlw	127
  3620  000ED0  6E38               	movwf	USER_USB_CALLBACK_EVENT_HANDLER@event+1,c
  3621  000ED2  6837               	setf	USER_USB_CALLBACK_EVENT_HANDLER@event,c
  3622  000ED4  0E00               	movlw	0
  3623  000ED6  6E39               	movwf	USER_USB_CALLBACK_EVENT_HANDLER@pdata,c
  3624  000ED8  0E00               	movlw	0
  3625  000EDA  6E3A               	movwf	USER_USB_CALLBACK_EVENT_HANDLER@pdata+1,c
  3626  000EDC  0E00               	movlw	0
  3627  000EDE  6E3C               	movwf	USER_USB_CALLBACK_EVENT_HANDLER@size+1,c
  3628  000EE0  0E01               	movlw	1
  3629  000EE2  6E3B               	movwf	USER_USB_CALLBACK_EVENT_HANDLER@size,c
  3630  000EE4  EC69  F00E         	call	_USER_USB_CALLBACK_EVENT_HANDLER	;wreg free
  3631                           
  3632                           ;usb_device.c: 777: {UEIR = 0;};
  3633  000EE8  0E00               	movlw	0
  3634  000EEA  010F               	movlb	15	; () banked
  3635  000EEC  6F5F               	movwf	95,b	;volatile
  3636  000EEE                     i2l4003:
  3637                           
  3638                           ;usb_device.c: 785: }
  3639                           ;usb_device.c: 792: if(USBDeviceState < DEFAULT_STATE)
  3640  000EEE  0E04               	movlw	4
  3641  000EF0  6024               	cpfslt	_USBDeviceState,c	;volatile
  3642  000EF2  D002               	goto	i2l413
  3643                           
  3644                           ;usb_device.c: 793: {
  3645                           ;usb_device.c: 794: {PIR2bits.USBIF = 0;};
  3646  000EF4  94A1               	bcf	4001,2,c	;volatile
  3647                           
  3648                           ;usb_device.c: 795: return;
  3649  000EF6  0012               	return	
  3650  000EF8                     i2l413:
  3651                           
  3652                           ;usb_device.c: 796: }
  3653                           ;usb_device.c: 801: if(UIEbits.TRNIE)
  3654  000EF8  A660               	btfss	3936,3,c	;volatile
  3655  000EFA  D038               	goto	i2l414
  3656                           
  3657                           ;usb_device.c: 802: {
  3658                           ;usb_device.c: 803: for(i = 0; i < 4u; i++)
  3659  000EFC  0E00               	movlw	0
  3660  000EFE  6E46               	movwf	USBDeviceTasks@i,c
  3661  000F00                     i2l4009:
  3662  000F00  0E03               	movlw	3
  3663  000F02  6446               	cpfsgt	USBDeviceTasks@i,c
  3664  000F04  D001               	goto	i2l415
  3665  000F06  D032               	goto	i2l414
  3666  000F08                     i2l415:
  3667                           
  3668                           ;usb_device.c: 804: {
  3669                           ;usb_device.c: 805: if(UIRbits.TRNIF)
  3670  000F08  A662               	btfss	3938,3,c	;volatile
  3671  000F0A  D030               	goto	i2l414
  3672                           
  3673                           ;usb_device.c: 806: {
  3674                           ;usb_device.c: 808: USTATcopy.Val = USTAT;
  3675  000F0C  CF63 F02A          	movff	3939,_USTATcopy	;volatile
  3676                           
  3677                           ;usb_device.c: 809: endpoint_number = USTATcopy.endpoint_number;
  3678  000F10  302A               	rrcf	_USTATcopy,w,c	;volatile
  3679  000F12  32E8               	rrcf	wreg,f,c
  3680  000F14  32E8               	rrcf	wreg,f,c
  3681  000F16  0B0F               	andlw	15
  3682  000F18  6E26               	movwf	_endpoint_number,c	;volatile
  3683                           
  3684                           ;usb_device.c: 811: (UIR &= 0xF7);
  3685  000F1A  9662               	bcf	3938,3,c	;volatile
  3686                           
  3687                           ;usb_device.c: 816: if(USTATcopy.direction == 0)
  3688  000F1C  B42A               	btfsc	_USTATcopy,2,c	;volatile
  3689  000F1E  D007               	goto	i2l4023
  3690                           
  3691                           ;usb_device.c: 817: {
  3692                           ;usb_device.c: 818: ep_data_out[endpoint_number].bits.ping_pong_state ^= 1;
  3693  000F20  5026               	movf	_endpoint_number,w,c	;volatile
  3694  000F22  0D01               	mullw	1
  3695  000F24  0E1D               	movlw	low _ep_data_out
  3696  000F26  24F3               	addwf	prodl,w,c
  3697  000F28  6ED9               	movwf	fsr2l,c
  3698  000F2A  0E00               	movlw	high _ep_data_out
  3699  000F2C  D006               	goto	L3
  3700  000F2E                     i2l4023:
  3701                           
  3702                           ;usb_device.c: 820: else
  3703                           ;usb_device.c: 821: {
  3704                           ;usb_device.c: 822: ep_data_in[endpoint_number].bits.ping_pong_state ^= 1;
  3705  000F2E  5026               	movf	_endpoint_number,w,c	;volatile
  3706  000F30  0D01               	mullw	1
  3707  000F32  0E1B               	movlw	low _ep_data_in
  3708  000F34  24F3               	addwf	prodl,w,c
  3709  000F36  6ED9               	movwf	fsr2l,c
  3710  000F38  0E00               	movlw	high _ep_data_in
  3711  000F3A                     L3:
  3712  000F3A  20F4               	addwfc	prodh,w,c
  3713  000F3C  6EDA               	movwf	fsr2h,c
  3714  000F3E  70DF               	btg	indf2,0,c
  3715                           
  3716                           ;usb_device.c: 823: }
  3717                           ;usb_device.c: 828: if(endpoint_number == 0)
  3718  000F40  5026               	movf	_endpoint_number,w,c	;volatile
  3719  000F42  A4D8               	btfss	status,2,c
  3720  000F44  D003               	goto	i2l4029
  3721                           
  3722                           ;usb_device.c: 829: {
  3723                           ;usb_device.c: 830: USBCtrlEPService();
  3724  000F46  EC20  F00E         	call	_USBCtrlEPService	;wreg free
  3725                           
  3726                           ;usb_device.c: 831: }
  3727  000F4A  D00E               	goto	i2l4031
  3728  000F4C                     i2l4029:
  3729                           
  3730                           ;usb_device.c: 832: else
  3731                           ;usb_device.c: 833: {
  3732                           ;usb_device.c: 834: USER_USB_CALLBACK_EVENT_HANDLER(EVENT_TRANSFER,(uint8_t*)&USTATcopy.
      +                          Val,0);
  3733  000F4C  0E00               	movlw	0
  3734  000F4E  6E38               	movwf	USER_USB_CALLBACK_EVENT_HANDLER@event+1,c
  3735  000F50  0E72               	movlw	114
  3736  000F52  6E37               	movwf	USER_USB_CALLBACK_EVENT_HANDLER@event,c
  3737  000F54  0E2A               	movlw	low _USTATcopy
  3738  000F56  6E39               	movwf	USER_USB_CALLBACK_EVENT_HANDLER@pdata,c
  3739  000F58  0E00               	movlw	high _USTATcopy
  3740  000F5A  6E3A               	movwf	USER_USB_CALLBACK_EVENT_HANDLER@pdata+1,c
  3741  000F5C  0E00               	movlw	0
  3742  000F5E  6E3C               	movwf	USER_USB_CALLBACK_EVENT_HANDLER@size+1,c
  3743  000F60  0E00               	movlw	0
  3744  000F62  6E3B               	movwf	USER_USB_CALLBACK_EVENT_HANDLER@size,c
  3745  000F64  EC69  F00E         	call	_USER_USB_CALLBACK_EVENT_HANDLER	;wreg free
  3746  000F68                     i2l4031:
  3747  000F68  2A46               	incf	USBDeviceTasks@i,f,c
  3748  000F6A  D7CA               	goto	i2l4009
  3749  000F6C                     i2l414:
  3750                           
  3751                           ;usb_device.c: 840: }
  3752                           ;usb_device.c: 841: }
  3753                           ;usb_device.c: 842: }
  3754                           ;usb_device.c: 844: {PIR2bits.USBIF = 0;};
  3755  000F6C  94A1               	bcf	4001,2,c	;volatile
  3756  000F6E  0012               	return		;funcret
  3757  000F70                     __end_of_USBDeviceTasks:
  3758                           	opt stack 0
  3759                           pclatu	equ	0xFFB
  3760                           pclath	equ	0xFFA
  3761                           tblptru	equ	0xFF8
  3762                           tblptrh	equ	0xFF7
  3763                           tblptrl	equ	0xFF6
  3764                           tablat	equ	0xFF5
  3765                           prodh	equ	0xFF4
  3766                           prodl	equ	0xFF3
  3767                           intcon	equ	0xFF2
  3768                           postinc0	equ	0xFEE
  3769                           fsr0h	equ	0xFEA
  3770                           fsr0l	equ	0xFE9
  3771                           wreg	equ	0xFE8
  3772                           postinc1	equ	0xFE6
  3773                           postdec1	equ	0xFE5
  3774                           plusw1	equ	0xFE3
  3775                           fsr1h	equ	0xFE2
  3776                           fsr1l	equ	0xFE1
  3777                           indf2	equ	0xFDF
  3778                           postinc2	equ	0xFDE
  3779                           postdec2	equ	0xFDD
  3780                           plusw2	equ	0xFDB
  3781                           fsr2h	equ	0xFDA
  3782                           fsr2l	equ	0xFD9
  3783                           status	equ	0xFD8
  3784                           
  3785 ;; *************** function i2_USBDeviceInit *****************
  3786 ;; Defined at:
  3787 ;;		line 295 in file "usb_device.c"
  3788 ;; Parameters:    Size  Location     Type
  3789 ;;		None
  3790 ;; Auto vars:     Size  Location     Type
  3791 ;;  USBDeviceIni    1    8[COMRAM] unsigned char 
  3792 ;; Return value:  Size  Location     Type
  3793 ;;                  1    wreg      void 
  3794 ;; Registers used:
  3795 ;;		wreg, fsr2l, fsr2h, status,2, status,0, prodl, prodh, cstack
  3796 ;; Tracked objects:
  3797 ;;		On entry : 0/0
  3798 ;;		On exit  : 0/0
  3799 ;;		Unchanged: 0/0
  3800 ;; Data sizes:     COMRAM   BANK0   BANK1 BANK2hh BANK2hl
  3801 ;;      Params:         0       0       0       0       0
  3802 ;;      Locals:         1       0       0       0       0
  3803 ;;      Temps:          0       0       0       0       0
  3804 ;;      Totals:         1       0       0       0       0
  3805 ;;Total ram usage:        1 bytes
  3806 ;; Hardware stack levels used:    1
  3807 ;; Hardware stack levels required when called:    1
  3808 ;; This function calls:
  3809 ;;		i2_memset
  3810 ;; This function is called by:
  3811 ;;		_USBDeviceTasks
  3812 ;; This function uses a non-reentrant model
  3813 ;;
  3814                           
  3815                           	psect	text12
  3816  000CE4                     __ptext12:
  3817                           	opt stack 0
  3818  000CE4                     i2_USBDeviceInit:
  3819                           	opt stack 25
  3820                           
  3821                           ;usb_device.c: 297: uint8_t i;
  3822                           ;usb_device.c: 299: {PIE2bits.USBIE = 0;};
  3823                           
  3824                           ;incstack = 0
  3825  000CE4  94A0               	bcf	4000,2,c	;volatile
  3826                           
  3827                           ;usb_device.c: 303: ;
  3828                           ;usb_device.c: 306: {UEIR = 0;};
  3829  000CE6  0E00               	movlw	0
  3830  000CE8  010F               	movlb	15	; () banked
  3831  000CEA  6F5F               	movwf	95,b	;volatile
  3832                           
  3833                           ;usb_device.c: 309: {UIR = 0;};
  3834  000CEC  0E00               	movlw	0
  3835  000CEE  6E62               	movwf	3938,c	;volatile
  3836                           
  3837                           ;usb_device.c: 312: UEP0 = 0;
  3838  000CF0  0E00               	movlw	0
  3839  000CF2  010F               	movlb	15	; () banked
  3840  000CF4  6F53               	movwf	83,b	;volatile
  3841                           
  3842                           ; BSR set to: 15
  3843                           ;usb_device.c: 314: memset((void*)&UEP1,0x00,(1));;
  3844  000CF6  0E54               	movlw	84
  3845  000CF8  6E2B               	movwf	i2memset@p1,c
  3846  000CFA  0E0F               	movlw	15
  3847  000CFC  6E2C               	movwf	i2memset@p1+1,c
  3848  000CFE  0E00               	movlw	0
  3849  000D00  6E2E               	movwf	i2memset@c+1,c
  3850  000D02  0E00               	movlw	0
  3851  000D04  6E2D               	movwf	i2memset@c,c
  3852  000D06  0E00               	movlw	0
  3853  000D08  6E30               	movwf	i2memset@n+1,c
  3854  000D0A  0E01               	movlw	1
  3855  000D0C  6E2F               	movwf	i2memset@n,c
  3856  000D0E  EC3D  F010         	call	i2_memset	;wreg free
  3857                           
  3858                           ;usb_device.c: 316: { UCFG = 0x10 | 0x00 | 0x04 | 0x02; UEIE = 0x9F; UIE = 0x39 | 0x40 |
      +                           0x02; };
  3859  000D12  0E16               	movlw	22
  3860  000D14  6E61               	movwf	3937,c	;volatile
  3861  000D16  0E9F               	movlw	159
  3862  000D18  010F               	movlb	15	; () banked
  3863  000D1A  6F5B               	movwf	91,b	;volatile
  3864                           
  3865                           ; BSR set to: 15
  3866  000D1C  0E7B               	movlw	123
  3867  000D1E  6E60               	movwf	3936,c	;volatile
  3868                           
  3869                           ; BSR set to: 15
  3870                           ;usb_device.c: 319: ;
  3871                           ;usb_device.c: 322: ;
  3872                           ;usb_device.c: 325: for(i = 0; i < (sizeof(BDT)/sizeof(BDT_ENTRY)); i++)
  3873  000D20  0E00               	movlw	0
  3874  000D22  6E33               	movwf	i2USBDeviceInit@i,c
  3875  000D24                     i2l3585:
  3876                           
  3877                           ; BSR set to: 15
  3878  000D24  0E07               	movlw	7
  3879  000D26  6433               	cpfsgt	i2USBDeviceInit@i,c
  3880  000D28  D001               	goto	i2l3589
  3881  000D2A  D00E               	goto	i2l392
  3882  000D2C                     i2l3589:
  3883                           
  3884                           ;usb_device.c: 326: {
  3885                           ;usb_device.c: 327: BDT[i].Val = 0x00;
  3886  000D2C  5033               	movf	i2USBDeviceInit@i,w,c
  3887  000D2E  0D04               	mullw	4
  3888  000D30  0E00               	movlw	0
  3889  000D32  24F3               	addwf	prodl,w,c
  3890  000D34  6ED9               	movwf	fsr2l,c
  3891  000D36  0E02               	movlw	2
  3892  000D38  20F4               	addwfc	prodh,w,c
  3893  000D3A  6EDA               	movwf	fsr2h,c
  3894  000D3C  6ADE               	clrf	postinc2,c
  3895  000D3E  6ADE               	clrf	postinc2,c
  3896  000D40  6ADE               	clrf	postinc2,c
  3897  000D42  6ADD               	clrf	postdec2,c
  3898  000D44  2A33               	incf	i2USBDeviceInit@i,f,c
  3899  000D46  D7EE               	goto	i2l3585
  3900  000D48                     i2l392:
  3901                           
  3902                           ;usb_device.c: 328: }
  3903                           ;usb_device.c: 331: UCONbits.PPBRST = 1;
  3904  000D48  8C64               	bsf	3940,6,c	;volatile
  3905                           
  3906                           ;usb_device.c: 334: UADDR = 0x00;
  3907  000D4A  0E00               	movlw	0
  3908  000D4C  010F               	movlb	15	; () banked
  3909  000D4E  6F5C               	movwf	92,b	;volatile
  3910                           
  3911                           ; BSR set to: 15
  3912                           ;usb_device.c: 337: UCONbits.PKTDIS = 0;
  3913  000D50  9864               	bcf	3940,4,c	;volatile
  3914                           
  3915                           ; BSR set to: 15
  3916                           ;usb_device.c: 340: UCONbits.PPBRST = 0;
  3917  000D52  9C64               	bcf	3940,6,c	;volatile
  3918  000D54                     i2l3601:
  3919                           
  3920                           ;usb_device.c: 344: {
  3921                           ;usb_device.c: 345: (UIR &= 0xF7);
  3922  000D54  9662               	bcf	3938,3,c	;volatile
  3923                           
  3924                           ;usb_device.c: 347: inPipes[0].info.Val = 0;
  3925  000D56  0E00               	movlw	0
  3926  000D58  6E0C               	movwf	_inPipes+3,c	;volatile
  3927                           
  3928                           ;usb_device.c: 348: outPipes[0].info.Val = 0;
  3929  000D5A  0E00               	movlw	0
  3930  000D5C  6E04               	movwf	_outPipes+3,c	;volatile
  3931                           
  3932                           ;usb_device.c: 349: outPipes[0].wCount.Val = 0;
  3933  000D5E  0E00               	movlw	0
  3934  000D60  6E06               	movwf	_outPipes+5,c	;volatile
  3935  000D62  0E00               	movlw	0
  3936  000D64  6E05               	movwf	_outPipes+4,c	;volatile
  3937                           
  3938                           ;usb_device.c: 350: }while(UIRbits.TRNIF == 1);
  3939  000D66  B662               	btfsc	3938,3,c	;volatile
  3940  000D68  D7F5               	goto	i2l3601
  3941                           
  3942                           ;usb_device.c: 354: USBStatusStageEnabledFlag1 = 1;
  3943  000D6A  0E01               	movlw	1
  3944  000D6C  0100               	movlb	0	; () banked
  3945  000D6E  6F89               	movwf	_USBStatusStageEnabledFlag1& (0+255),b	;volatile
  3946                           
  3947                           ;usb_device.c: 355: USBStatusStageEnabledFlag2 = 1;
  3948  000D70  0E01               	movlw	1
  3949  000D72  0100               	movlb	0	; () banked
  3950  000D74  6F8A               	movwf	_USBStatusStageEnabledFlag2& (0+255),b	;volatile
  3951                           
  3952                           ;usb_device.c: 357: USBDeferINDataStagePackets = 0;
  3953  000D76  0E00               	movlw	0
  3954  000D78  0100               	movlb	0	; () banked
  3955  000D7A  6F87               	movwf	_USBDeferINDataStagePackets& (0+255),b	;volatile
  3956                           
  3957                           ;usb_device.c: 358: USBDeferOUTDataStagePackets = 0;
  3958  000D7C  0E00               	movlw	0
  3959  000D7E  0100               	movlb	0	; () banked
  3960  000D80  6F88               	movwf	_USBDeferOUTDataStagePackets& (0+255),b	;volatile
  3961                           
  3962                           ;usb_device.c: 359: USBBusIsSuspended = 0;
  3963  000D82  0E00               	movlw	0
  3964  000D84  0100               	movlb	0	; () banked
  3965  000D86  6F86               	movwf	_USBBusIsSuspended& (0+255),b	;volatile
  3966                           
  3967                           ;usb_device.c: 363: for(i = 0; i < (uint8_t)(1+1u); i++)
  3968  000D88  0E00               	movlw	0
  3969  000D8A  6E33               	movwf	i2USBDeviceInit@i,c
  3970  000D8C                     i2l3613:
  3971                           
  3972                           ; BSR set to: 0
  3973  000D8C  0E01               	movlw	1
  3974  000D8E  6433               	cpfsgt	i2USBDeviceInit@i,c
  3975  000D90  D001               	goto	i2l3617
  3976  000D92  D02E               	goto	i2l3623
  3977  000D94                     i2l3617:
  3978                           
  3979                           ;usb_device.c: 364: {
  3980                           ;usb_device.c: 365: pBDTEntryIn[i] = 0u;
  3981  000D94  5033               	movf	i2USBDeviceInit@i,w,c
  3982  000D96  0D02               	mullw	2
  3983  000D98  0E15               	movlw	low _pBDTEntryIn
  3984  000D9A  24F3               	addwf	prodl,w,c
  3985  000D9C  6ED9               	movwf	fsr2l,c
  3986  000D9E  0E00               	movlw	high _pBDTEntryIn
  3987  000DA0  20F4               	addwfc	prodh,w,c
  3988  000DA2  6EDA               	movwf	fsr2h,c
  3989  000DA4  0E00               	movlw	0
  3990  000DA6  6EDE               	movwf	postinc2,c
  3991  000DA8  0E00               	movlw	0
  3992  000DAA  6EDD               	movwf	postdec2,c
  3993                           
  3994                           ;usb_device.c: 366: pBDTEntryOut[i] = 0u;
  3995  000DAC  5033               	movf	i2USBDeviceInit@i,w,c
  3996  000DAE  0D02               	mullw	2
  3997  000DB0  0E78               	movlw	low _pBDTEntryOut
  3998  000DB2  24F3               	addwf	prodl,w,c
  3999  000DB4  6ED9               	movwf	fsr2l,c
  4000  000DB6  0E00               	movlw	high _pBDTEntryOut
  4001  000DB8  20F4               	addwfc	prodh,w,c
  4002  000DBA  6EDA               	movwf	fsr2h,c
  4003  000DBC  0E00               	movlw	0
  4004  000DBE  6EDE               	movwf	postinc2,c
  4005  000DC0  0E00               	movlw	0
  4006  000DC2  6EDD               	movwf	postdec2,c
  4007                           
  4008                           ;usb_device.c: 367: ep_data_in[i].Val = 0u;
  4009  000DC4  5033               	movf	i2USBDeviceInit@i,w,c
  4010  000DC6  0D01               	mullw	1
  4011  000DC8  0E1B               	movlw	low _ep_data_in
  4012  000DCA  24F3               	addwf	prodl,w,c
  4013  000DCC  6ED9               	movwf	fsr2l,c
  4014  000DCE  0E00               	movlw	high _ep_data_in
  4015  000DD0  20F4               	addwfc	prodh,w,c
  4016  000DD2  6EDA               	movwf	fsr2h,c
  4017  000DD4  0E00               	movlw	0
  4018  000DD6  6EDF               	movwf	indf2,c
  4019                           
  4020                           ;usb_device.c: 368: ep_data_out[i].Val = 0u;
  4021  000DD8  5033               	movf	i2USBDeviceInit@i,w,c
  4022  000DDA  0D01               	mullw	1
  4023  000DDC  0E1D               	movlw	low _ep_data_out
  4024  000DDE  24F3               	addwf	prodl,w,c
  4025  000DE0  6ED9               	movwf	fsr2l,c
  4026  000DE2  0E00               	movlw	high _ep_data_out
  4027  000DE4  20F4               	addwfc	prodh,w,c
  4028  000DE6  6EDA               	movwf	fsr2h,c
  4029  000DE8  0E00               	movlw	0
  4030  000DEA  6EDF               	movwf	indf2,c
  4031  000DEC  2A33               	incf	i2USBDeviceInit@i,f,c
  4032  000DEE  D7CE               	goto	i2l3613
  4033  000DF0                     i2l3623:
  4034                           
  4035                           ;usb_device.c: 369: }
  4036                           ;usb_device.c: 372: pBDTEntryIn[0] = (volatile BDT_ENTRY*)&BDT[2];
  4037  000DF0  0E08               	movlw	8
  4038  000DF2  6E15               	movwf	_pBDTEntryIn,c
  4039  000DF4  0E02               	movlw	2
  4040  000DF6  6E16               	movwf	_pBDTEntryIn+1,c
  4041                           
  4042                           ;usb_device.c: 374: UEP0 = 0x06|0x10;
  4043  000DF8  0E16               	movlw	22
  4044  000DFA  010F               	movlb	15	; () banked
  4045  000DFC  6F53               	movwf	83,b	;volatile
  4046                           
  4047                           ; BSR set to: 15
  4048                           ;usb_device.c: 376: BDT[0].ADR = ((uint16_t)(&SetupPkt));
  4049  000DFE  0E02               	movlw	2
  4050  000E00  0102               	movlb	2	; () banked
  4051  000E02  6F03               	movwf	3,b	;volatile
  4052  000E04  0E20               	movlw	32
  4053  000E06  6F02               	movwf	2,b	;volatile
  4054                           
  4055                           ; BSR set to: 2
  4056                           ;usb_device.c: 377: BDT[0].CNT = 8;
  4057  000E08  0E08               	movlw	8
  4058  000E0A  0102               	movlb	2	; () banked
  4059  000E0C  6F01               	movwf	1,b	;volatile
  4060                           
  4061                           ; BSR set to: 2
  4062                           ;usb_device.c: 378: BDT[0].STAT.Val = 0x00|0x04;
  4063  000E0E  0E04               	movlw	4
  4064  000E10  0102               	movlb	2	; () banked
  4065  000E12  6F00               	movwf	0,b	;volatile
  4066                           
  4067                           ; BSR set to: 2
  4068                           ;usb_device.c: 379: BDT[0].STAT.Val |= 0x80;
  4069  000E14  0102               	movlb	2	; () banked
  4070  000E16  8F00               	bsf	0,7,b	;volatile
  4071                           
  4072                           ; BSR set to: 2
  4073                           ;usb_device.c: 382: USBActiveConfiguration = 0;
  4074  000E18  0E00               	movlw	0
  4075  000E1A  6E28               	movwf	_USBActiveConfiguration,c	;volatile
  4076                           
  4077                           ; BSR set to: 2
  4078                           ;usb_device.c: 384: USB1msTickCount = 0;
  4079  000E1C  0E00               	movlw	0
  4080  000E1E  0100               	movlb	0	; () banked
  4081  000E20  6F74               	movwf	_USB1msTickCount& (0+255),b	;volatile
  4082  000E22  0E00               	movlw	0
  4083  000E24  6F75               	movwf	(_USB1msTickCount+1)& (0+255),b	;volatile
  4084  000E26  0E00               	movlw	0
  4085  000E28  6F76               	movwf	(_USB1msTickCount+2)& (0+255),b	;volatile
  4086  000E2A  0E00               	movlw	0
  4087  000E2C  6F77               	movwf	(_USB1msTickCount+3)& (0+255),b	;volatile
  4088                           
  4089                           ; BSR set to: 0
  4090                           ;usb_device.c: 385: USBTicksSinceSuspendEnd = 0;
  4091  000E2E  0E00               	movlw	0
  4092  000E30  0100               	movlb	0	; () banked
  4093  000E32  6F8C               	movwf	_USBTicksSinceSuspendEnd& (0+255),b	;volatile
  4094                           
  4095                           ; BSR set to: 0
  4096                           ;usb_device.c: 388: USBDeviceState = DETACHED_STATE;
  4097  000E34  0E00               	movlw	0
  4098  000E36  6E24               	movwf	_USBDeviceState,c	;volatile
  4099                           
  4100                           ; BSR set to: 0
  4101  000E38  0012               	return		;funcret
  4102  000E3A                     __end_ofi2_USBDeviceInit:
  4103                           	opt stack 0
  4104                           pclatu	equ	0xFFB
  4105                           pclath	equ	0xFFA
  4106                           tblptru	equ	0xFF8
  4107                           tblptrh	equ	0xFF7
  4108                           tblptrl	equ	0xFF6
  4109                           tablat	equ	0xFF5
  4110                           prodh	equ	0xFF4
  4111                           prodl	equ	0xFF3
  4112                           intcon	equ	0xFF2
  4113                           postinc0	equ	0xFEE
  4114                           fsr0h	equ	0xFEA
  4115                           fsr0l	equ	0xFE9
  4116                           wreg	equ	0xFE8
  4117                           postinc1	equ	0xFE6
  4118                           postdec1	equ	0xFE5
  4119                           plusw1	equ	0xFE3
  4120                           fsr1h	equ	0xFE2
  4121                           fsr1l	equ	0xFE1
  4122                           indf2	equ	0xFDF
  4123                           postinc2	equ	0xFDE
  4124                           postdec2	equ	0xFDD
  4125                           plusw2	equ	0xFDB
  4126                           fsr2h	equ	0xFDA
  4127                           fsr2l	equ	0xFD9
  4128                           status	equ	0xFD8
  4129                           
  4130 ;; *************** function _USBWakeFromSuspend *****************
  4131 ;; Defined at:
  4132 ;;		line 2321 in file "usb_device.c"
  4133 ;; Parameters:    Size  Location     Type
  4134 ;;		None
  4135 ;; Auto vars:     Size  Location     Type
  4136 ;;		None
  4137 ;; Return value:  Size  Location     Type
  4138 ;;                  1    wreg      void 
  4139 ;; Registers used:
  4140 ;;		wreg, fsr2l, fsr2h, status,2, status,0, prodl, prodh, cstack
  4141 ;; Tracked objects:
  4142 ;;		On entry : 0/0
  4143 ;;		On exit  : 0/0
  4144 ;;		Unchanged: 0/0
  4145 ;; Data sizes:     COMRAM   BANK0   BANK1 BANK2hh BANK2hl
  4146 ;;      Params:         0       0       0       0       0
  4147 ;;      Locals:         0       0       0       0       0
  4148 ;;      Temps:          0       0       0       0       0
  4149 ;;      Totals:         0       0       0       0       0
  4150 ;;Total ram usage:        0 bytes
  4151 ;; Hardware stack levels used:    1
  4152 ;; Hardware stack levels required when called:    4
  4153 ;; This function calls:
  4154 ;;		_USER_USB_CALLBACK_EVENT_HANDLER
  4155 ;; This function is called by:
  4156 ;;		_USBDeviceTasks
  4157 ;; This function uses a non-reentrant model
  4158 ;;
  4159                           
  4160                           	psect	text13
  4161  001FAE                     __ptext13:
  4162                           	opt stack 0
  4163  001FAE                     _USBWakeFromSuspend:
  4164                           	opt stack 22
  4165                           
  4166                           ;usb_device.c: 2323: USBBusIsSuspended = 0;
  4167                           
  4168                           ; BSR set to: 0
  4169                           ;incstack = 0
  4170  001FAE  0E00               	movlw	0
  4171  001FB0  0100               	movlb	0	; () banked
  4172  001FB2  6F86               	movwf	_USBBusIsSuspended& (0+255),b	;volatile
  4173                           
  4174                           ; BSR set to: 0
  4175                           ;usb_device.c: 2329: USER_USB_CALLBACK_EVENT_HANDLER(EVENT_RESUME,0,0);
  4176  001FB4  0E00               	movlw	0
  4177  001FB6  6E38               	movwf	USER_USB_CALLBACK_EVENT_HANDLER@event+1,c
  4178  001FB8  0E74               	movlw	116
  4179  001FBA  6E37               	movwf	USER_USB_CALLBACK_EVENT_HANDLER@event,c
  4180  001FBC  0E00               	movlw	0
  4181  001FBE  6E39               	movwf	USER_USB_CALLBACK_EVENT_HANDLER@pdata,c
  4182  001FC0  0E00               	movlw	0
  4183  001FC2  6E3A               	movwf	USER_USB_CALLBACK_EVENT_HANDLER@pdata+1,c
  4184  001FC4  0E00               	movlw	0
  4185  001FC6  6E3C               	movwf	USER_USB_CALLBACK_EVENT_HANDLER@size+1,c
  4186  001FC8  0E00               	movlw	0
  4187  001FCA  6E3B               	movwf	USER_USB_CALLBACK_EVENT_HANDLER@size,c
  4188  001FCC  EC69  F00E         	call	_USER_USB_CALLBACK_EVENT_HANDLER	;wreg free
  4189                           
  4190                           ;usb_device.c: 2336: UCONbits.SUSPND = 0;
  4191  001FD0  9264               	bcf	3940,1,c	;volatile
  4192                           
  4193                           ;usb_device.c: 2341: UIEbits.ACTVIE = 0;
  4194  001FD2  9460               	bcf	3936,2,c	;volatile
  4195                           
  4196                           ;usb_device.c: 2359: while(UIRbits.ACTVIF)
  4197  001FD4  D001               	goto	i2l3511
  4198  001FD6                     i2l3509:
  4199                           
  4200                           ;usb_device.c: 2361: {
  4201                           ;usb_device.c: 2362: (UIR &= 0xFB);
  4202  001FD6  9462               	bcf	3938,2,c	;volatile
  4203  001FD8                     i2l3511:
  4204  001FD8  B462               	btfsc	3938,2,c	;volatile
  4205  001FDA  D7FD               	goto	i2l3509
  4206                           
  4207                           ;usb_device.c: 2363: }
  4208                           ;usb_device.c: 2365: USBTicksSinceSuspendEnd = 0;
  4209  001FDC  0E00               	movlw	0
  4210  001FDE  0100               	movlb	0	; () banked
  4211  001FE0  6F8C               	movwf	_USBTicksSinceSuspendEnd& (0+255),b	;volatile
  4212                           
  4213                           ; BSR set to: 0
  4214  001FE2  0012               	return		;funcret
  4215  001FE4                     __end_of_USBWakeFromSuspend:
  4216                           	opt stack 0
  4217                           pclatu	equ	0xFFB
  4218                           pclath	equ	0xFFA
  4219                           tblptru	equ	0xFF8
  4220                           tblptrh	equ	0xFF7
  4221                           tblptrl	equ	0xFF6
  4222                           tablat	equ	0xFF5
  4223                           prodh	equ	0xFF4
  4224                           prodl	equ	0xFF3
  4225                           intcon	equ	0xFF2
  4226                           postinc0	equ	0xFEE
  4227                           fsr0h	equ	0xFEA
  4228                           fsr0l	equ	0xFE9
  4229                           wreg	equ	0xFE8
  4230                           postinc1	equ	0xFE6
  4231                           postdec1	equ	0xFE5
  4232                           plusw1	equ	0xFE3
  4233                           fsr1h	equ	0xFE2
  4234                           fsr1l	equ	0xFE1
  4235                           indf2	equ	0xFDF
  4236                           postinc2	equ	0xFDE
  4237                           postdec2	equ	0xFDD
  4238                           plusw2	equ	0xFDB
  4239                           fsr2h	equ	0xFDA
  4240                           fsr2l	equ	0xFD9
  4241                           status	equ	0xFD8
  4242                           
  4243 ;; *************** function _USBSuspend *****************
  4244 ;; Defined at:
  4245 ;;		line 2263 in file "usb_device.c"
  4246 ;; Parameters:    Size  Location     Type
  4247 ;;		None
  4248 ;; Auto vars:     Size  Location     Type
  4249 ;;		None
  4250 ;; Return value:  Size  Location     Type
  4251 ;;                  1    wreg      void 
  4252 ;; Registers used:
  4253 ;;		wreg, fsr2l, fsr2h, status,2, status,0, prodl, prodh, cstack
  4254 ;; Tracked objects:
  4255 ;;		On entry : 0/0
  4256 ;;		On exit  : 0/0
  4257 ;;		Unchanged: 0/0
  4258 ;; Data sizes:     COMRAM   BANK0   BANK1 BANK2hh BANK2hl
  4259 ;;      Params:         0       0       0       0       0
  4260 ;;      Locals:         0       0       0       0       0
  4261 ;;      Temps:          0       0       0       0       0
  4262 ;;      Totals:         0       0       0       0       0
  4263 ;;Total ram usage:        0 bytes
  4264 ;; Hardware stack levels used:    1
  4265 ;; Hardware stack levels required when called:    4
  4266 ;; This function calls:
  4267 ;;		_USER_USB_CALLBACK_EVENT_HANDLER
  4268 ;; This function is called by:
  4269 ;;		_USBDeviceTasks
  4270 ;; This function uses a non-reentrant model
  4271 ;;
  4272                           
  4273                           	psect	text14
  4274  00204A                     __ptext14:
  4275                           	opt stack 0
  4276  00204A                     _USBSuspend:
  4277                           	opt stack 22
  4278                           
  4279                           ;usb_device.c: 2288: UIEbits.ACTVIE = 1;
  4280                           
  4281                           ; BSR set to: 0
  4282                           ;incstack = 0
  4283  00204A  8460               	bsf	3936,2,c	;volatile
  4284                           
  4285                           ;usb_device.c: 2289: (UIR &= 0xEF);
  4286  00204C  9862               	bcf	3938,4,c	;volatile
  4287                           
  4288                           ;usb_device.c: 2292: UCONbits.SUSPND = 1;
  4289  00204E  8264               	bsf	3940,1,c	;volatile
  4290                           
  4291                           ;usb_device.c: 2295: USBBusIsSuspended = 1;
  4292  002050  0E01               	movlw	1
  4293  002052  0100               	movlb	0	; () banked
  4294  002054  6F86               	movwf	_USBBusIsSuspended& (0+255),b	;volatile
  4295                           
  4296                           ; BSR set to: 0
  4297                           ;usb_device.c: 2296: USBTicksSinceSuspendEnd = 0;
  4298  002056  0E00               	movlw	0
  4299  002058  0100               	movlb	0	; () banked
  4300  00205A  6F8C               	movwf	_USBTicksSinceSuspendEnd& (0+255),b	;volatile
  4301                           
  4302                           ; BSR set to: 0
  4303                           ;usb_device.c: 2303: USER_USB_CALLBACK_EVENT_HANDLER(EVENT_SUSPEND,0,0);
  4304  00205C  0E00               	movlw	0
  4305  00205E  6E38               	movwf	USER_USB_CALLBACK_EVENT_HANDLER@event+1,c
  4306  002060  0E75               	movlw	117
  4307  002062  6E37               	movwf	USER_USB_CALLBACK_EVENT_HANDLER@event,c
  4308  002064  0E00               	movlw	0
  4309  002066  6E39               	movwf	USER_USB_CALLBACK_EVENT_HANDLER@pdata,c
  4310  002068  0E00               	movlw	0
  4311  00206A  6E3A               	movwf	USER_USB_CALLBACK_EVENT_HANDLER@pdata+1,c
  4312  00206C  0E00               	movlw	0
  4313  00206E  6E3C               	movwf	USER_USB_CALLBACK_EVENT_HANDLER@size+1,c
  4314  002070  0E00               	movlw	0
  4315  002072  6E3B               	movwf	USER_USB_CALLBACK_EVENT_HANDLER@size,c
  4316  002074  EC69  F00E         	call	_USER_USB_CALLBACK_EVENT_HANDLER	;wreg free
  4317  002078  0012               	return		;funcret
  4318  00207A                     __end_of_USBSuspend:
  4319                           	opt stack 0
  4320                           pclatu	equ	0xFFB
  4321                           pclath	equ	0xFFA
  4322                           tblptru	equ	0xFF8
  4323                           tblptrh	equ	0xFF7
  4324                           tblptrl	equ	0xFF6
  4325                           tablat	equ	0xFF5
  4326                           prodh	equ	0xFF4
  4327                           prodl	equ	0xFF3
  4328                           intcon	equ	0xFF2
  4329                           postinc0	equ	0xFEE
  4330                           fsr0h	equ	0xFEA
  4331                           fsr0l	equ	0xFE9
  4332                           wreg	equ	0xFE8
  4333                           postinc1	equ	0xFE6
  4334                           postdec1	equ	0xFE5
  4335                           plusw1	equ	0xFE3
  4336                           fsr1h	equ	0xFE2
  4337                           fsr1l	equ	0xFE1
  4338                           indf2	equ	0xFDF
  4339                           postinc2	equ	0xFDE
  4340                           postdec2	equ	0xFDD
  4341                           plusw2	equ	0xFDB
  4342                           fsr2h	equ	0xFDA
  4343                           fsr2l	equ	0xFD9
  4344                           status	equ	0xFD8
  4345                           
  4346 ;; *************** function _USBStallHandler *****************
  4347 ;; Defined at:
  4348 ;;		line 2220 in file "usb_device.c"
  4349 ;; Parameters:    Size  Location     Type
  4350 ;;		None
  4351 ;; Auto vars:     Size  Location     Type
  4352 ;;		None
  4353 ;; Return value:  Size  Location     Type
  4354 ;;                  1    wreg      void 
  4355 ;; Registers used:
  4356 ;;		wreg, fsr2l, fsr2h, status,2, status,0
  4357 ;; Tracked objects:
  4358 ;;		On entry : 0/0
  4359 ;;		On exit  : 0/0
  4360 ;;		Unchanged: 0/0
  4361 ;; Data sizes:     COMRAM   BANK0   BANK1 BANK2hh BANK2hl
  4362 ;;      Params:         0       0       0       0       0
  4363 ;;      Locals:         0       0       0       0       0
  4364 ;;      Temps:          1       0       0       0       0
  4365 ;;      Totals:         1       0       0       0       0
  4366 ;;Total ram usage:        1 bytes
  4367 ;; Hardware stack levels used:    1
  4368 ;; This function calls:
  4369 ;;		Nothing
  4370 ;; This function is called by:
  4371 ;;		_USBDeviceTasks
  4372 ;; This function uses a non-reentrant model
  4373 ;;
  4374                           
  4375                           	psect	text15
  4376  001EEC                     __ptext15:
  4377                           	opt stack 0
  4378  001EEC                     _USBStallHandler:
  4379                           	opt stack 26
  4380                           
  4381                           ;usb_device.c: 2232: if(UEP0bits.EPSTALL == 1)
  4382                           
  4383                           ;incstack = 0
  4384  001EEC  010F               	movlb	15	; () banked
  4385  001EEE  A153               	btfss	83,0,b	;volatile
  4386  001EF0  D01E               	goto	i2l553
  4387                           
  4388                           ; BSR set to: 15
  4389                           ;usb_device.c: 2233: {
  4390                           ;usb_device.c: 2235: if((pBDTEntryEP0OutCurrent->STAT.Val == 0x80) && (pBDTEntryIn[0]->S
      +                          TAT.Val == (0x80|0x04)))
  4391  001EF2  C01F  FFD9         	movff	_pBDTEntryEP0OutCurrent,fsr2l
  4392  001EF6  C020  FFDA         	movff	_pBDTEntryEP0OutCurrent+1,fsr2h
  4393  001EFA  0E80               	movlw	128
  4394  001EFC  18DE               	xorwf	postinc2,w,c
  4395  001EFE  A4D8               	btfss	status,2,c
  4396  001F00  D014               	goto	i2l3547
  4397                           
  4398                           ; BSR set to: 15
  4399  001F02  C015  FFD9         	movff	_pBDTEntryIn,fsr2l
  4400  001F06  C016  FFDA         	movff	_pBDTEntryIn+1,fsr2h
  4401  001F0A  0E84               	movlw	132
  4402  001F0C  18DE               	xorwf	postinc2,w,c
  4403  001F0E  A4D8               	btfss	status,2,c
  4404  001F10  D00C               	goto	i2l3547
  4405                           
  4406                           ; BSR set to: 15
  4407                           ;usb_device.c: 2236: {
  4408                           ;usb_device.c: 2238: pBDTEntryEP0OutCurrent->STAT.Val = 0x00|(0x08 & 0x08)|0x04;
  4409  001F12  C01F  FFD9         	movff	_pBDTEntryEP0OutCurrent,fsr2l
  4410  001F16  C020  FFDA         	movff	_pBDTEntryEP0OutCurrent+1,fsr2h
  4411  001F1A  0E0C               	movlw	12
  4412  001F1C  6EDF               	movwf	indf2,c
  4413                           
  4414                           ; BSR set to: 15
  4415                           ;usb_device.c: 2239: pBDTEntryEP0OutCurrent->STAT.Val |= 0x80;
  4416  001F1E  C01F  FFD9         	movff	_pBDTEntryEP0OutCurrent,fsr2l
  4417  001F22  C020  FFDA         	movff	_pBDTEntryEP0OutCurrent+1,fsr2h
  4418  001F26  0E00               	movlw	0
  4419  001F28  8EDB               	bsf	plusw2,7,c
  4420  001F2A                     i2l3547:
  4421                           
  4422                           ; BSR set to: 15
  4423                           ;usb_device.c: 2240: }
  4424                           ;usb_device.c: 2241: UEP0bits.EPSTALL = 0;
  4425  001F2A  010F               	movlb	15	; () banked
  4426  001F2C  9153               	bcf	83,0,b	;volatile
  4427  001F2E                     i2l553:
  4428                           
  4429                           ; BSR set to: 15
  4430                           ;usb_device.c: 2242: }
  4431                           ;usb_device.c: 2244: (UIR &= 0xDF);
  4432  001F2E  9A62               	bcf	3938,5,c	;volatile
  4433                           
  4434                           ; BSR set to: 15
  4435  001F30  0012               	return		;funcret
  4436  001F32                     __end_of_USBStallHandler:
  4437                           	opt stack 0
  4438                           pclatu	equ	0xFFB
  4439                           pclath	equ	0xFFA
  4440                           tblptru	equ	0xFF8
  4441                           tblptrh	equ	0xFF7
  4442                           tblptrl	equ	0xFF6
  4443                           tablat	equ	0xFF5
  4444                           prodh	equ	0xFF4
  4445                           prodl	equ	0xFF3
  4446                           intcon	equ	0xFF2
  4447                           postinc0	equ	0xFEE
  4448                           fsr0h	equ	0xFEA
  4449                           fsr0l	equ	0xFE9
  4450                           wreg	equ	0xFE8
  4451                           postinc1	equ	0xFE6
  4452                           postdec1	equ	0xFE5
  4453                           plusw1	equ	0xFE3
  4454                           fsr1h	equ	0xFE2
  4455                           fsr1l	equ	0xFE1
  4456                           indf2	equ	0xFDF
  4457                           postinc2	equ	0xFDE
  4458                           postdec2	equ	0xFDD
  4459                           plusw2	equ	0xFDB
  4460                           fsr2h	equ	0xFDA
  4461                           fsr2l	equ	0xFD9
  4462                           status	equ	0xFD8
  4463                           
  4464 ;; *************** function _USBIncrement1msInternalTimers *****************
  4465 ;; Defined at:
  4466 ;;		line 3042 in file "usb_device.c"
  4467 ;; Parameters:    Size  Location     Type
  4468 ;;		None
  4469 ;; Auto vars:     Size  Location     Type
  4470 ;;		None
  4471 ;; Return value:  Size  Location     Type
  4472 ;;                  1    wreg      void 
  4473 ;; Registers used:
  4474 ;;		wreg, status,2, status,0
  4475 ;; Tracked objects:
  4476 ;;		On entry : 0/0
  4477 ;;		On exit  : 0/0
  4478 ;;		Unchanged: 0/0
  4479 ;; Data sizes:     COMRAM   BANK0   BANK1 BANK2hh BANK2hl
  4480 ;;      Params:         0       0       0       0       0
  4481 ;;      Locals:         0       0       0       0       0
  4482 ;;      Temps:          0       0       0       0       0
  4483 ;;      Totals:         0       0       0       0       0
  4484 ;;Total ram usage:        0 bytes
  4485 ;; Hardware stack levels used:    1
  4486 ;; This function calls:
  4487 ;;		Nothing
  4488 ;; This function is called by:
  4489 ;;		_USBDeviceTasks
  4490 ;; This function uses a non-reentrant model
  4491 ;;
  4492                           
  4493                           	psect	text16
  4494  0020CE                     __ptext16:
  4495                           	opt stack 0
  4496  0020CE                     _USBIncrement1msInternalTimers:
  4497                           	opt stack 26
  4498                           
  4499                           ;usb_device.c: 3050: USB1msTickCount++;
  4500                           
  4501                           ; BSR set to: 15
  4502                           ;incstack = 0
  4503  0020CE  0E01               	movlw	1
  4504  0020D0  0100               	movlb	0	; () banked
  4505  0020D2  2774               	addwf	_USB1msTickCount& (0+255),f,b	;volatile
  4506  0020D4  0E00               	movlw	0
  4507  0020D6  2375               	addwfc	(_USB1msTickCount+1)& (0+255),f,b	;volatile
  4508  0020D8  2376               	addwfc	(_USB1msTickCount+2)& (0+255),f,b	;volatile
  4509  0020DA  2377               	addwfc	(_USB1msTickCount+3)& (0+255),f,b	;volatile
  4510                           
  4511                           ; BSR set to: 0
  4512                           ;usb_device.c: 3051: if(USBBusIsSuspended == 0)
  4513  0020DC  0100               	movlb	0	; () banked
  4514  0020DE  5186               	movf	_USBBusIsSuspended& (0+255),w,b	;volatile
  4515  0020E0  A4D8               	btfss	status,2,c
  4516  0020E2  0012               	return	
  4517                           
  4518                           ; BSR set to: 0
  4519                           ;usb_device.c: 3052: {
  4520                           ;usb_device.c: 3053: USBTicksSinceSuspendEnd++;
  4521  0020E4  0100               	movlb	0	; () banked
  4522  0020E6  2B8C               	incf	_USBTicksSinceSuspendEnd& (0+255),f,b	;volatile
  4523                           
  4524                           ; BSR set to: 0
  4525                           ;usb_device.c: 3055: if(USBTicksSinceSuspendEnd == 0)
  4526  0020E8  0100               	movlb	0	; () banked
  4527  0020EA  518C               	movf	_USBTicksSinceSuspendEnd& (0+255),w,b	;volatile
  4528  0020EC  A4D8               	btfss	status,2,c
  4529  0020EE  0012               	return	
  4530                           
  4531                           ; BSR set to: 0
  4532                           ;usb_device.c: 3056: {
  4533                           ;usb_device.c: 3057: USBTicksSinceSuspendEnd = 255;
  4534  0020F0  0100               	movlb	0	; () banked
  4535  0020F2  698C               	setf	_USBTicksSinceSuspendEnd& (0+255),b	;volatile
  4536                           
  4537                           ; BSR set to: 0
  4538  0020F4  0012               	return	
  4539  0020F6                     __end_of_USBIncrement1msInternalTimers:
  4540                           	opt stack 0
  4541                           pclatu	equ	0xFFB
  4542                           pclath	equ	0xFFA
  4543                           tblptru	equ	0xFF8
  4544                           tblptrh	equ	0xFF7
  4545                           tblptrl	equ	0xFF6
  4546                           tablat	equ	0xFF5
  4547                           prodh	equ	0xFF4
  4548                           prodl	equ	0xFF3
  4549                           intcon	equ	0xFF2
  4550                           postinc0	equ	0xFEE
  4551                           fsr0h	equ	0xFEA
  4552                           fsr0l	equ	0xFE9
  4553                           wreg	equ	0xFE8
  4554                           postinc1	equ	0xFE6
  4555                           postdec1	equ	0xFE5
  4556                           plusw1	equ	0xFE3
  4557                           fsr1h	equ	0xFE2
  4558                           fsr1l	equ	0xFE1
  4559                           indf2	equ	0xFDF
  4560                           postinc2	equ	0xFDE
  4561                           postdec2	equ	0xFDD
  4562                           plusw2	equ	0xFDB
  4563                           fsr2h	equ	0xFDA
  4564                           fsr2l	equ	0xFD9
  4565                           status	equ	0xFD8
  4566                           
  4567 ;; *************** function _USBCtrlEPService *****************
  4568 ;; Defined at:
  4569 ;;		line 2390 in file "usb_device.c"
  4570 ;; Parameters:    Size  Location     Type
  4571 ;;		None
  4572 ;; Auto vars:     Size  Location     Type
  4573 ;;		None
  4574 ;; Return value:  Size  Location     Type
  4575 ;;                  1    wreg      void 
  4576 ;; Registers used:
  4577 ;;		wreg, fsr1l, fsr1h, fsr2l, fsr2h, status,2, status,0, pclat, tosl, tblptrl, tblptrh, tblptru, prodl, prodh, cstack
  4578 ;; Tracked objects:
  4579 ;;		On entry : 0/0
  4580 ;;		On exit  : 0/0
  4581 ;;		Unchanged: 0/0
  4582 ;; Data sizes:     COMRAM   BANK0   BANK1 BANK2hh BANK2hl
  4583 ;;      Params:         0       0       0       0       0
  4584 ;;      Locals:         0       0       0       0       0
  4585 ;;      Temps:          1       0       0       0       0
  4586 ;;      Totals:         1       0       0       0       0
  4587 ;;Total ram usage:        1 bytes
  4588 ;; Hardware stack levels used:    1
  4589 ;; Hardware stack levels required when called:    7
  4590 ;; This function calls:
  4591 ;;		_USBCtrlTrfInHandler
  4592 ;;		_USBCtrlTrfOutHandler
  4593 ;;		_USBCtrlTrfSetupHandler
  4594 ;;		_memcpy
  4595 ;; This function is called by:
  4596 ;;		_USBDeviceTasks
  4597 ;; This function uses a non-reentrant model
  4598 ;;
  4599                           
  4600                           	psect	text17
  4601  001C40                     __ptext17:
  4602                           	opt stack 0
  4603  001C40                     _USBCtrlEPService:
  4604                           	opt stack 19
  4605                           
  4606                           ;usb_device.c: 2396: USBStatusStageTimeoutCounter = (uint8_t)45;
  4607                           
  4608                           ; BSR set to: 0
  4609                           ;incstack = 0
  4610  001C40  0E2D               	movlw	45
  4611  001C42  0100               	movlb	0	; () banked
  4612  001C44  6F8B               	movwf	_USBStatusStageTimeoutCounter& (0+255),b	;volatile
  4613                           
  4614                           ; BSR set to: 0
  4615                           ;usb_device.c: 2400: if((USTATcopy.Val & ~0x02) == 0x00)
  4616  001C46  C02A  F045         	movff	_USTATcopy,??_USBCtrlEPService	;volatile
  4617  001C4A  0EFD               	movlw	253
  4618  001C4C  1645               	andwf	??_USBCtrlEPService,f,c
  4619  001C4E  A4D8               	btfss	status,2,c
  4620  001C50  D038               	goto	i2l3567
  4621                           
  4622                           ; BSR set to: 0
  4623                           ;usb_device.c: 2401: {
  4624                           ;usb_device.c: 2404: pBDTEntryEP0OutCurrent = (volatile BDT_ENTRY*)&BDT[(USTATcopy.Val &
      +                           0x7E)>>1];
  4625  001C52  C02A  F045         	movff	_USTATcopy,??_USBCtrlEPService	;volatile
  4626  001C56  90D8               	bcf	status,0,c
  4627  001C58  3245               	rrcf	??_USBCtrlEPService,f,c
  4628  001C5A  0E3F               	movlw	63
  4629  001C5C  1645               	andwf	??_USBCtrlEPService,f,c
  4630  001C5E  5045               	movf	??_USBCtrlEPService,w,c
  4631  001C60  0D04               	mullw	4
  4632  001C62  0E00               	movlw	0
  4633  001C64  24F3               	addwf	prodl,w,c
  4634  001C66  6E1F               	movwf	_pBDTEntryEP0OutCurrent,c
  4635  001C68  0E02               	movlw	2
  4636  001C6A  20F4               	addwfc	prodh,w,c
  4637  001C6C  6E20               	movwf	_pBDTEntryEP0OutCurrent+1,c
  4638                           
  4639                           ; BSR set to: 0
  4640                           ;usb_device.c: 2412: pBDTEntryEP0OutNext = pBDTEntryEP0OutCurrent;
  4641  001C6E  C01F  F021         	movff	_pBDTEntryEP0OutCurrent,_pBDTEntryEP0OutNext
  4642  001C72  C020  F022         	movff	_pBDTEntryEP0OutCurrent+1,_pBDTEntryEP0OutNext+1
  4643                           
  4644                           ; BSR set to: 0
  4645                           ;usb_device.c: 2414: ((uint8_t_VAL*)&pBDTEntryEP0OutNext)->Val ^= 0x0004;
  4646  001C76  0E04               	movlw	4
  4647  001C78  1A21               	xorwf	_pBDTEntryEP0OutNext,f,c
  4648                           
  4649                           ; BSR set to: 0
  4650                           ;usb_device.c: 2417: if(pBDTEntryEP0OutCurrent->STAT.PID == 0xD)
  4651  001C7A  C01F  FFD9         	movff	_pBDTEntryEP0OutCurrent,fsr2l
  4652  001C7E  C020  FFDA         	movff	_pBDTEntryEP0OutCurrent+1,fsr2h
  4653  001C82  30DF               	rrcf	indf2,w,c
  4654  001C84  32E8               	rrcf	wreg,f,c
  4655  001C86  0B0F               	andlw	15
  4656  001C88  0A0D               	xorlw	13
  4657  001C8A  A4D8               	btfss	status,2,c
  4658  001C8C  D017               	goto	i2l3565
  4659                           
  4660                           ; BSR set to: 0
  4661                           ;usb_device.c: 2418: {
  4662                           ;usb_device.c: 2423: memcpy((uint8_t*)&SetupPkt, (uint8_t*)((void *)(pBDTEntryEP0OutCurr
      +                          ent->ADR)), 8);
  4663  001C8E  0E20               	movlw	32
  4664  001C90  6E2B               	movwf	memcpy@d1,c
  4665  001C92  0E02               	movlw	2
  4666  001C94  6E2C               	movwf	memcpy@d1+1,c
  4667  001C96  EE20 F002          	lfsr	2,2
  4668  001C9A  501F               	movf	_pBDTEntryEP0OutCurrent,w,c
  4669  001C9C  26D9               	addwf	fsr2l,f,c
  4670  001C9E  5020               	movf	_pBDTEntryEP0OutCurrent+1,w,c
  4671  001CA0  22DA               	addwfc	fsr2h,f,c
  4672  001CA2  CFDE F02D          	movff	postinc2,memcpy@s1
  4673  001CA6  CFDD F02E          	movff	postdec2,memcpy@s1+1
  4674  001CAA  0E00               	movlw	0
  4675  001CAC  6E30               	movwf	memcpy@n+1,c
  4676  001CAE  0E08               	movlw	8
  4677  001CB0  6E2F               	movwf	memcpy@n,c
  4678  001CB2  EC99  F00F         	call	_memcpy	;wreg free
  4679                           
  4680                           ;usb_device.c: 2426: USBCtrlTrfSetupHandler();
  4681  001CB6  ECAF  F00E         	call	_USBCtrlTrfSetupHandler	;wreg free
  4682                           
  4683                           ;usb_device.c: 2427: }
  4684  001CBA  0012               	return	
  4685  001CBC                     i2l3565:
  4686                           
  4687                           ;usb_device.c: 2428: else
  4688                           ;usb_device.c: 2429: {
  4689                           ;usb_device.c: 2431: USBCtrlTrfOutHandler();
  4690  001CBC  EC23  F00F         	call	_USBCtrlTrfOutHandler	;wreg free
  4691                           
  4692                           ;usb_device.c: 2432: }
  4693                           ;usb_device.c: 2433: }
  4694  001CC0  0012               	return	
  4695  001CC2                     i2l3567:
  4696                           
  4697                           ;usb_device.c: 2434: else if((USTATcopy.Val & ~0x02) == 0x04)
  4698  001CC2  502A               	movf	_USTATcopy,w,c	;volatile
  4699  001CC4  0BFD               	andlw	253
  4700  001CC6  0A04               	xorlw	4
  4701  001CC8  A4D8               	btfss	status,2,c
  4702  001CCA  0012               	return	
  4703                           
  4704                           ;usb_device.c: 2435: {
  4705                           ;usb_device.c: 2438: USBCtrlTrfInHandler();
  4706  001CCC  EC4E  F00A         	call	_USBCtrlTrfInHandler	;wreg free
  4707  001CD0  0012               	return	
  4708  001CD2                     __end_of_USBCtrlEPService:
  4709                           	opt stack 0
  4710                           pclatu	equ	0xFFB
  4711                           pclath	equ	0xFFA
  4712                           tblptru	equ	0xFF8
  4713                           tblptrh	equ	0xFF7
  4714                           tblptrl	equ	0xFF6
  4715                           tablat	equ	0xFF5
  4716                           prodh	equ	0xFF4
  4717                           prodl	equ	0xFF3
  4718                           intcon	equ	0xFF2
  4719                           postinc0	equ	0xFEE
  4720                           fsr0h	equ	0xFEA
  4721                           fsr0l	equ	0xFE9
  4722                           wreg	equ	0xFE8
  4723                           postinc1	equ	0xFE6
  4724                           postdec1	equ	0xFE5
  4725                           plusw1	equ	0xFE3
  4726                           fsr1h	equ	0xFE2
  4727                           fsr1l	equ	0xFE1
  4728                           indf2	equ	0xFDF
  4729                           postinc2	equ	0xFDE
  4730                           postdec2	equ	0xFDD
  4731                           plusw2	equ	0xFDB
  4732                           fsr2h	equ	0xFDA
  4733                           fsr2l	equ	0xFD9
  4734                           status	equ	0xFD8
  4735                           
  4736 ;; *************** function _memcpy *****************
  4737 ;; Defined at:
  4738 ;;		line 11 in file "/Applications/microchip/xc8/v1.37/sources/common/memcpy.c"
  4739 ;; Parameters:    Size  Location     Type
  4740 ;;  d1              2    0[COMRAM] PTR void 
  4741 ;;		 -> SetupPkt(8), 
  4742 ;;  s1              2    2[COMRAM] PTR const void 
  4743 ;;		 -> RAM(767), SetupPkt(8), CtrlTrfData(8), inputReport(8), 
  4744 ;;		 -> outputReport(8), 
  4745 ;;  n               2    4[COMRAM] unsigned int 
  4746 ;; Auto vars:     Size  Location     Type
  4747 ;;  s               2    8[COMRAM] PTR const unsigned char 
  4748 ;;		 -> RAM(767), SetupPkt(8), CtrlTrfData(8), inputReport(8), 
  4749 ;;		 -> outputReport(8), 
  4750 ;;  d               2    6[COMRAM] PTR unsigned char 
  4751 ;;		 -> SetupPkt(8), 
  4752 ;; Return value:  Size  Location     Type
  4753 ;;                  2    0[COMRAM] PTR void 
  4754 ;; Registers used:
  4755 ;;		wreg, fsr1l, fsr1h, fsr2l, fsr2h, status,2, status,0
  4756 ;; Tracked objects:
  4757 ;;		On entry : 0/0
  4758 ;;		On exit  : 0/0
  4759 ;;		Unchanged: 0/0
  4760 ;; Data sizes:     COMRAM   BANK0   BANK1 BANK2hh BANK2hl
  4761 ;;      Params:         6       0       0       0       0
  4762 ;;      Locals:         4       0       0       0       0
  4763 ;;      Temps:          0       0       0       0       0
  4764 ;;      Totals:        10       0       0       0       0
  4765 ;;Total ram usage:       10 bytes
  4766 ;; Hardware stack levels used:    1
  4767 ;; This function calls:
  4768 ;;		Nothing
  4769 ;; This function is called by:
  4770 ;;		_USBCtrlEPService
  4771 ;; This function uses a non-reentrant model
  4772 ;;
  4773                           
  4774                           	psect	text18
  4775  001F32                     __ptext18:
  4776                           	opt stack 0
  4777  001F32                     _memcpy:
  4778                           	opt stack 25
  4779                           
  4780                           ;incstack = 0
  4781  001F32  C02D  F033         	movff	memcpy@s1,memcpy@s
  4782  001F36  C02E  F034         	movff	memcpy@s1+1,memcpy@s+1
  4783  001F3A  C02B  F031         	movff	memcpy@d1,memcpy@d
  4784  001F3E  C02C  F032         	movff	memcpy@d1+1,memcpy@d+1
  4785  001F42  D00E               	goto	i2l3361
  4786  001F44                     i2l3355:
  4787  001F44  C033  FFD9         	movff	memcpy@s,fsr2l
  4788  001F48  C034  FFDA         	movff	memcpy@s+1,fsr2h
  4789  001F4C  C031  FFE1         	movff	memcpy@d,fsr1l
  4790  001F50  C032  FFE2         	movff	memcpy@d+1,fsr1h
  4791  001F54  CFDF FFE7          	movff	indf2,indf1
  4792  001F58  4A33               	infsnz	memcpy@s,f,c
  4793  001F5A  2A34               	incf	memcpy@s+1,f,c
  4794  001F5C  4A31               	infsnz	memcpy@d,f,c
  4795  001F5E  2A32               	incf	memcpy@d+1,f,c
  4796  001F60                     i2l3361:
  4797  001F60  062F               	decf	memcpy@n,f,c
  4798  001F62  A0D8               	btfss	status,0,c
  4799  001F64  0630               	decf	memcpy@n+1,f,c
  4800  001F66  282F               	incf	memcpy@n,w,c
  4801  001F68  E1ED               	bnz	i2l3355
  4802  001F6A  2830               	incf	memcpy@n+1,w,c
  4803  001F6C  B4D8               	btfsc	status,2,c
  4804  001F6E  0012               	return	
  4805  001F70  D7E9               	goto	i2l3355
  4806  001F72                     __end_of_memcpy:
  4807                           	opt stack 0
  4808                           pclatu	equ	0xFFB
  4809                           pclath	equ	0xFFA
  4810                           tblptru	equ	0xFF8
  4811                           tblptrh	equ	0xFF7
  4812                           tblptrl	equ	0xFF6
  4813                           tablat	equ	0xFF5
  4814                           prodh	equ	0xFF4
  4815                           prodl	equ	0xFF3
  4816                           intcon	equ	0xFF2
  4817                           postinc0	equ	0xFEE
  4818                           fsr0h	equ	0xFEA
  4819                           fsr0l	equ	0xFE9
  4820                           wreg	equ	0xFE8
  4821                           indf1	equ	0xFE7
  4822                           postinc1	equ	0xFE6
  4823                           postdec1	equ	0xFE5
  4824                           plusw1	equ	0xFE3
  4825                           fsr1h	equ	0xFE2
  4826                           fsr1l	equ	0xFE1
  4827                           indf2	equ	0xFDF
  4828                           postinc2	equ	0xFDE
  4829                           postdec2	equ	0xFDD
  4830                           plusw2	equ	0xFDB
  4831                           fsr2h	equ	0xFDA
  4832                           fsr2l	equ	0xFD9
  4833                           status	equ	0xFD8
  4834                           
  4835 ;; *************** function _USBCtrlTrfSetupHandler *****************
  4836 ;; Defined at:
  4837 ;;		line 2483 in file "usb_device.c"
  4838 ;; Parameters:    Size  Location     Type
  4839 ;;		None
  4840 ;; Auto vars:     Size  Location     Type
  4841 ;;		None
  4842 ;; Return value:  Size  Location     Type
  4843 ;;                  1    wreg      void 
  4844 ;; Registers used:
  4845 ;;		wreg, fsr1l, fsr1h, fsr2l, fsr2h, status,2, status,0, tblptrl, tblptrh, tblptru, prodl, prodh, cstack
  4846 ;; Tracked objects:
  4847 ;;		On entry : 0/0
  4848 ;;		On exit  : 0/0
  4849 ;;		Unchanged: 0/0
  4850 ;; Data sizes:     COMRAM   BANK0   BANK1 BANK2hh BANK2hl
  4851 ;;      Params:         0       0       0       0       0
  4852 ;;      Locals:         0       0       0       0       0
  4853 ;;      Temps:          0       0       0       0       0
  4854 ;;      Totals:         0       0       0       0       0
  4855 ;;Total ram usage:        0 bytes
  4856 ;; Hardware stack levels used:    1
  4857 ;; Hardware stack levels required when called:    6
  4858 ;; This function calls:
  4859 ;;		_USBCheckStdRequest
  4860 ;;		_USBCtrlEPServiceComplete
  4861 ;;		_USER_USB_CALLBACK_EVENT_HANDLER
  4862 ;; This function is called by:
  4863 ;;		_USBCtrlEPService
  4864 ;; This function uses a non-reentrant model
  4865 ;;
  4866                           
  4867                           	psect	text19
  4868  001D5E                     __ptext19:
  4869                           	opt stack 0
  4870  001D5E                     _USBCtrlTrfSetupHandler:
  4871                           	opt stack 19
  4872                           
  4873                           ;usb_device.c: 2488: shortPacketStatus = 0;
  4874                           
  4875                           ;incstack = 0
  4876  001D5E  0E00               	movlw	0
  4877  001D60  6E27               	movwf	_shortPacketStatus,c	;volatile
  4878                           
  4879                           ;usb_device.c: 2489: USBDeferStatusStagePacket = 0;
  4880  001D62  0E00               	movlw	0
  4881  001D64  6E23               	movwf	_USBDeferStatusStagePacket,c	;volatile
  4882                           
  4883                           ;usb_device.c: 2490: USBDeferINDataStagePackets = 0;
  4884  001D66  0E00               	movlw	0
  4885  001D68  0100               	movlb	0	; () banked
  4886  001D6A  6F87               	movwf	_USBDeferINDataStagePackets& (0+255),b	;volatile
  4887                           
  4888                           ;usb_device.c: 2491: USBDeferOUTDataStagePackets = 0;
  4889  001D6C  0E00               	movlw	0
  4890  001D6E  0100               	movlb	0	; () banked
  4891  001D70  6F88               	movwf	_USBDeferOUTDataStagePackets& (0+255),b	;volatile
  4892                           
  4893                           ;usb_device.c: 2492: BothEP0OutUOWNsSet = 0;
  4894  001D72  0E00               	movlw	0
  4895  001D74  0100               	movlb	0	; () banked
  4896  001D76  6F84               	movwf	_BothEP0OutUOWNsSet& (0+255),b	;volatile
  4897                           
  4898                           ;usb_device.c: 2493: controlTransferState = 0;
  4899  001D78  0E00               	movlw	0
  4900  001D7A  6E25               	movwf	_controlTransferState,c	;volatile
  4901                           
  4902                           ; BSR set to: 0
  4903                           ;usb_device.c: 2502: pBDTEntryIn[0]->STAT.Val &= ~(0x80);
  4904  001D7C  C015  FFD9         	movff	_pBDTEntryIn,fsr2l
  4905  001D80  C016  FFDA         	movff	_pBDTEntryIn+1,fsr2h
  4906  001D84  0E7F               	movlw	127
  4907  001D86  16DF               	andwf	indf2,f,c
  4908                           
  4909                           ; BSR set to: 0
  4910                           ;usb_device.c: 2503: ((uint8_t_VAL*)&pBDTEntryIn[0])->Val ^= 0x0004;
  4911  001D88  0E04               	movlw	4
  4912  001D8A  1A15               	xorwf	_pBDTEntryIn,f,c
  4913                           
  4914                           ; BSR set to: 0
  4915                           ;usb_device.c: 2504: pBDTEntryIn[0]->STAT.Val &= ~(0x80);
  4916  001D8C  C015  FFD9         	movff	_pBDTEntryIn,fsr2l
  4917  001D90  C016  FFDA         	movff	_pBDTEntryIn+1,fsr2h
  4918  001D94  0E7F               	movlw	127
  4919  001D96  16DF               	andwf	indf2,f,c
  4920                           
  4921                           ; BSR set to: 0
  4922                           ;usb_device.c: 2505: ((uint8_t_VAL*)&pBDTEntryIn[0])->Val ^= 0x0004;
  4923  001D98  0E04               	movlw	4
  4924  001D9A  1A15               	xorwf	_pBDTEntryIn,f,c
  4925                           
  4926                           ; BSR set to: 0
  4927                           ;usb_device.c: 2506: pBDTEntryEP0OutNext->STAT.Val &= ~(0x80);
  4928  001D9C  C021  FFD9         	movff	_pBDTEntryEP0OutNext,fsr2l
  4929  001DA0  C022  FFDA         	movff	_pBDTEntryEP0OutNext+1,fsr2h
  4930  001DA4  0E7F               	movlw	127
  4931  001DA6  16DF               	andwf	indf2,f,c
  4932                           
  4933                           ; BSR set to: 0
  4934                           ;usb_device.c: 2508: inPipes[0].info.Val = 0;
  4935  001DA8  0E00               	movlw	0
  4936  001DAA  6E0C               	movwf	_inPipes+3,c	;volatile
  4937                           
  4938                           ; BSR set to: 0
  4939                           ;usb_device.c: 2509: inPipes[0].wCount.Val = 0;
  4940  001DAC  0E00               	movlw	0
  4941  001DAE  6E0E               	movwf	_inPipes+5,c	;volatile
  4942  001DB0  0E00               	movlw	0
  4943  001DB2  6E0D               	movwf	_inPipes+4,c	;volatile
  4944                           
  4945                           ; BSR set to: 0
  4946                           ;usb_device.c: 2510: outPipes[0].info.Val = 0;
  4947  001DB4  0E00               	movlw	0
  4948  001DB6  6E04               	movwf	_outPipes+3,c	;volatile
  4949                           
  4950                           ; BSR set to: 0
  4951                           ;usb_device.c: 2511: outPipes[0].wCount.Val = 0;
  4952  001DB8  0E00               	movlw	0
  4953  001DBA  6E06               	movwf	_outPipes+5,c	;volatile
  4954  001DBC  0E00               	movlw	0
  4955  001DBE  6E05               	movwf	_outPipes+4,c	;volatile
  4956                           
  4957                           ; BSR set to: 0
  4958                           ;usb_device.c: 2517: USBCheckStdRequest();
  4959  001DC0  EC2C  F00B         	call	_USBCheckStdRequest	;wreg free
  4960                           
  4961                           ;usb_device.c: 2518: USER_USB_CALLBACK_EVENT_HANDLER(EVENT_EP0_REQUEST,0,0);
  4962  001DC4  0E00               	movlw	0
  4963  001DC6  6E38               	movwf	USER_USB_CALLBACK_EVENT_HANDLER@event+1,c
  4964  001DC8  0E03               	movlw	3
  4965  001DCA  6E37               	movwf	USER_USB_CALLBACK_EVENT_HANDLER@event,c
  4966  001DCC  0E00               	movlw	0
  4967  001DCE  6E39               	movwf	USER_USB_CALLBACK_EVENT_HANDLER@pdata,c
  4968  001DD0  0E00               	movlw	0
  4969  001DD2  6E3A               	movwf	USER_USB_CALLBACK_EVENT_HANDLER@pdata+1,c
  4970  001DD4  0E00               	movlw	0
  4971  001DD6  6E3C               	movwf	USER_USB_CALLBACK_EVENT_HANDLER@size+1,c
  4972  001DD8  0E00               	movlw	0
  4973  001DDA  6E3B               	movwf	USER_USB_CALLBACK_EVENT_HANDLER@size,c
  4974  001DDC  EC69  F00E         	call	_USER_USB_CALLBACK_EVENT_HANDLER	;wreg free
  4975                           
  4976                           ;usb_device.c: 2531: USBCtrlEPServiceComplete();
  4977  001DE0  ECE0  F008         	call	_USBCtrlEPServiceComplete	;wreg free
  4978  001DE4  0012               	return		;funcret
  4979  001DE6                     __end_of_USBCtrlTrfSetupHandler:
  4980                           	opt stack 0
  4981                           pclatu	equ	0xFFB
  4982                           pclath	equ	0xFFA
  4983                           tblptru	equ	0xFF8
  4984                           tblptrh	equ	0xFF7
  4985                           tblptrl	equ	0xFF6
  4986                           tablat	equ	0xFF5
  4987                           prodh	equ	0xFF4
  4988                           prodl	equ	0xFF3
  4989                           intcon	equ	0xFF2
  4990                           postinc0	equ	0xFEE
  4991                           fsr0h	equ	0xFEA
  4992                           fsr0l	equ	0xFE9
  4993                           wreg	equ	0xFE8
  4994                           indf1	equ	0xFE7
  4995                           postinc1	equ	0xFE6
  4996                           postdec1	equ	0xFE5
  4997                           plusw1	equ	0xFE3
  4998                           fsr1h	equ	0xFE2
  4999                           fsr1l	equ	0xFE1
  5000                           indf2	equ	0xFDF
  5001                           postinc2	equ	0xFDE
  5002                           postdec2	equ	0xFDD
  5003                           plusw2	equ	0xFDB
  5004                           fsr2h	equ	0xFDA
  5005                           fsr2l	equ	0xFD9
  5006                           status	equ	0xFD8
  5007                           
  5008 ;; *************** function _USBCtrlEPServiceComplete *****************
  5009 ;; Defined at:
  5010 ;;		line 1634 in file "usb_device.c"
  5011 ;; Parameters:    Size  Location     Type
  5012 ;;		None
  5013 ;; Auto vars:     Size  Location     Type
  5014 ;;		None
  5015 ;; Return value:  Size  Location     Type
  5016 ;;                  1    wreg      void 
  5017 ;; Registers used:
  5018 ;;		wreg, fsr1l, fsr1h, fsr2l, fsr2h, status,2, status,0, tblptrl, tblptrh, tblptru, cstack
  5019 ;; Tracked objects:
  5020 ;;		On entry : 0/0
  5021 ;;		On exit  : 0/0
  5022 ;;		Unchanged: 0/0
  5023 ;; Data sizes:     COMRAM   BANK0   BANK1 BANK2hh BANK2hl
  5024 ;;      Params:         0       0       0       0       0
  5025 ;;      Locals:         0       0       0       0       0
  5026 ;;      Temps:          0       0       0       0       0
  5027 ;;      Totals:         0       0       0       0       0
  5028 ;;Total ram usage:        0 bytes
  5029 ;; Hardware stack levels used:    1
  5030 ;; Hardware stack levels required when called:    2
  5031 ;; This function calls:
  5032 ;;		_USBCtrlEPAllowDataStage
  5033 ;;		_USBCtrlEPAllowStatusStage
  5034 ;; This function is called by:
  5035 ;;		_USBCtrlTrfSetupHandler
  5036 ;; This function uses a non-reentrant model
  5037 ;;
  5038                           
  5039                           	psect	text20
  5040  0011C0                     __ptext20:
  5041                           	opt stack 0
  5042  0011C0                     _USBCtrlEPServiceComplete:
  5043                           	opt stack 22
  5044                           
  5045                           ;usb_device.c: 1640: UCONbits.PKTDIS = 0;
  5046                           
  5047                           ;incstack = 0
  5048  0011C0  9864               	bcf	3940,4,c	;volatile
  5049                           
  5050                           ;usb_device.c: 1646: if(inPipes[0].info.bits.busy == 0)
  5051  0011C2  BE0C               	btfsc	_inPipes+3,7,c	;volatile
  5052  0011C4  D03B               	goto	i2l477
  5053                           
  5054                           ;usb_device.c: 1647: {
  5055                           ;usb_device.c: 1648: if(outPipes[0].info.bits.busy == 1)
  5056  0011C6  AE04               	btfss	_outPipes+3,7,c	;volatile
  5057  0011C8  D00E               	goto	i2l3229
  5058                           
  5059                           ;usb_device.c: 1649: {
  5060                           ;usb_device.c: 1650: controlTransferState = 2;
  5061  0011CA  0E02               	movlw	2
  5062  0011CC  6E25               	movwf	_controlTransferState,c	;volatile
  5063                           
  5064                           ;usb_device.c: 1661: if(USBDeferOUTDataStagePackets == 0)
  5065  0011CE  0100               	movlb	0	; () banked
  5066  0011D0  5188               	movf	_USBDeferOUTDataStagePackets& (0+255),w,b	;volatile
  5067  0011D2  B4D8               	btfsc	status,2,c
  5068                           
  5069                           ; BSR set to: 0
  5070                           ;usb_device.c: 1662: {
  5071                           ;usb_device.c: 1663: USBCtrlEPAllowDataStage();
  5072  0011D4  EC88  F00D         	call	_USBCtrlEPAllowDataStage	;wreg free
  5073                           
  5074                           ;usb_device.c: 1664: }
  5075                           ;usb_device.c: 1668: USBStatusStageEnabledFlag2 = 0;
  5076  0011D8  0E00               	movlw	0
  5077  0011DA  0100               	movlb	0	; () banked
  5078  0011DC  6F8A               	movwf	_USBStatusStageEnabledFlag2& (0+255),b	;volatile
  5079                           
  5080                           ; BSR set to: 0
  5081                           ;usb_device.c: 1669: USBStatusStageEnabledFlag1 = 0;
  5082  0011DE  0E00               	movlw	0
  5083  0011E0  0100               	movlb	0	; () banked
  5084  0011E2  6F89               	movwf	_USBStatusStageEnabledFlag1& (0+255),b	;volatile
  5085                           
  5086                           ;usb_device.c: 1670: }
  5087  0011E4  0012               	return	
  5088  0011E6                     i2l3229:
  5089                           
  5090                           ;usb_device.c: 1671: else
  5091                           ;usb_device.c: 1672: {
  5092                           ;usb_device.c: 1677: pBDTEntryEP0OutNext->CNT = 8;
  5093  0011E6  EE20 F001          	lfsr	2,1
  5094  0011EA  5021               	movf	_pBDTEntryEP0OutNext,w,c
  5095  0011EC  26D9               	addwf	fsr2l,f,c
  5096  0011EE  5022               	movf	_pBDTEntryEP0OutNext+1,w,c
  5097  0011F0  22DA               	addwfc	fsr2h,f,c
  5098  0011F2  0E08               	movlw	8
  5099  0011F4  6EDF               	movwf	indf2,c
  5100                           
  5101                           ;usb_device.c: 1678: pBDTEntryEP0OutNext->ADR = ((uint16_t)(&SetupPkt));
  5102  0011F6  EE20 F002          	lfsr	2,2
  5103  0011FA  5021               	movf	_pBDTEntryEP0OutNext,w,c
  5104  0011FC  26D9               	addwf	fsr2l,f,c
  5105  0011FE  5022               	movf	_pBDTEntryEP0OutNext+1,w,c
  5106  001200  22DA               	addwfc	fsr2h,f,c
  5107  001202  0E20               	movlw	32
  5108  001204  6EDE               	movwf	postinc2,c
  5109  001206  0E02               	movlw	2
  5110  001208  6EDD               	movwf	postdec2,c
  5111                           
  5112                           ;usb_device.c: 1679: pBDTEntryEP0OutNext->STAT.Val = 0x00|(0x08 & 0x08)|0x04;
  5113  00120A  C021  FFD9         	movff	_pBDTEntryEP0OutNext,fsr2l
  5114  00120E  C022  FFDA         	movff	_pBDTEntryEP0OutNext+1,fsr2h
  5115  001212  0E0C               	movlw	12
  5116  001214  6EDF               	movwf	indf2,c
  5117                           
  5118                           ;usb_device.c: 1680: pBDTEntryEP0OutNext->STAT.Val |= 0x80;
  5119  001216  C021  FFD9         	movff	_pBDTEntryEP0OutNext,fsr2l
  5120  00121A  C022  FFDA         	movff	_pBDTEntryEP0OutNext+1,fsr2h
  5121  00121E  0E00               	movlw	0
  5122  001220  8EDB               	bsf	plusw2,7,c
  5123                           
  5124                           ;usb_device.c: 1681: pBDTEntryIn[0]->STAT.Val = 0x04;
  5125  001222  C015  FFD9         	movff	_pBDTEntryIn,fsr2l
  5126  001226  C016  FFDA         	movff	_pBDTEntryIn+1,fsr2h
  5127  00122A  0E04               	movlw	4
  5128  00122C  6EDF               	movwf	indf2,c
  5129                           
  5130                           ;usb_device.c: 1682: pBDTEntryIn[0]->STAT.Val |= 0x80;
  5131  00122E  C015  FFD9         	movff	_pBDTEntryIn,fsr2l
  5132  001232  C016  FFDA         	movff	_pBDTEntryIn+1,fsr2h
  5133  001236  0E00               	movlw	0
  5134  001238  8EDB               	bsf	plusw2,7,c
  5135                           
  5136                           ;usb_device.c: 1683: }
  5137                           ;usb_device.c: 1684: }
  5138  00123A  0012               	return	
  5139  00123C                     i2l477:
  5140                           
  5141                           ;usb_device.c: 1685: else
  5142                           ;usb_device.c: 1686: {
  5143                           ;usb_device.c: 1687: if(SetupPkt.DataDir == (0x80>>7))
  5144  00123C  0102               	movlb	2	; () banked
  5145  00123E  AF20               	btfss	32,7,b	;volatile
  5146  001240  D013               	goto	i2l3249
  5147                           
  5148                           ; BSR set to: 2
  5149                           ;usb_device.c: 1688: {
  5150                           ;usb_device.c: 1689: controlTransferState = 1;
  5151  001242  0E01               	movlw	1
  5152  001244  6E25               	movwf	_controlTransferState,c	;volatile
  5153                           
  5154                           ;usb_device.c: 1703: if(USBDeferINDataStagePackets == 0)
  5155  001246  0100               	movlb	0	; () banked
  5156  001248  5187               	movf	_USBDeferINDataStagePackets& (0+255),w,b	;volatile
  5157  00124A  B4D8               	btfsc	status,2,c
  5158                           
  5159                           ; BSR set to: 0
  5160                           ;usb_device.c: 1704: {
  5161                           ;usb_device.c: 1705: USBCtrlEPAllowDataStage();
  5162  00124C  EC88  F00D         	call	_USBCtrlEPAllowDataStage	;wreg free
  5163                           
  5164                           ;usb_device.c: 1706: }
  5165                           ;usb_device.c: 1728: USBStatusStageEnabledFlag2 = 0;
  5166  001250  0E00               	movlw	0
  5167  001252  0100               	movlb	0	; () banked
  5168  001254  6F8A               	movwf	_USBStatusStageEnabledFlag2& (0+255),b	;volatile
  5169                           
  5170                           ; BSR set to: 0
  5171                           ;usb_device.c: 1729: USBStatusStageEnabledFlag1 = 0;
  5172  001256  0E00               	movlw	0
  5173  001258  0100               	movlb	0	; () banked
  5174  00125A  6F89               	movwf	_USBStatusStageEnabledFlag1& (0+255),b	;volatile
  5175                           
  5176                           ; BSR set to: 0
  5177                           ;usb_device.c: 1730: if(USBDeferStatusStagePacket == 0)
  5178  00125C  5023               	movf	_USBDeferStatusStagePacket,w,c	;volatile
  5179  00125E  A4D8               	btfss	status,2,c
  5180  001260  0012               	return	
  5181                           
  5182                           ; BSR set to: 0
  5183                           ;usb_device.c: 1731: {
  5184                           ;usb_device.c: 1732: USBCtrlEPAllowStatusStage();
  5185  001262  EC05  F00C         	call	_USBCtrlEPAllowStatusStage	;wreg free
  5186                           
  5187                           ;usb_device.c: 1733: }
  5188                           ;usb_device.c: 1734: }
  5189  001266  0012               	return	
  5190  001268                     i2l3249:
  5191                           
  5192                           ;usb_device.c: 1735: else
  5193                           ;usb_device.c: 1736: {
  5194                           ;usb_device.c: 1747: controlTransferState = 2;
  5195  001268  0E02               	movlw	2
  5196  00126A  6E25               	movwf	_controlTransferState,c	;volatile
  5197                           
  5198                           ;usb_device.c: 1750: pBDTEntryEP0OutNext->CNT = 8;
  5199  00126C  EE20 F001          	lfsr	2,1
  5200  001270  5021               	movf	_pBDTEntryEP0OutNext,w,c
  5201  001272  26D9               	addwf	fsr2l,f,c
  5202  001274  5022               	movf	_pBDTEntryEP0OutNext+1,w,c
  5203  001276  22DA               	addwfc	fsr2h,f,c
  5204  001278  0E08               	movlw	8
  5205  00127A  6EDF               	movwf	indf2,c
  5206                           
  5207                           ;usb_device.c: 1751: pBDTEntryEP0OutNext->ADR = ((uint16_t)(&SetupPkt));
  5208  00127C  EE20 F002          	lfsr	2,2
  5209  001280  5021               	movf	_pBDTEntryEP0OutNext,w,c
  5210  001282  26D9               	addwf	fsr2l,f,c
  5211  001284  5022               	movf	_pBDTEntryEP0OutNext+1,w,c
  5212  001286  22DA               	addwfc	fsr2h,f,c
  5213  001288  0E20               	movlw	32
  5214  00128A  6EDE               	movwf	postinc2,c
  5215  00128C  0E02               	movlw	2
  5216  00128E  6EDD               	movwf	postdec2,c
  5217                           
  5218                           ;usb_device.c: 1752: pBDTEntryEP0OutNext->STAT.Val = 0x04;
  5219  001290  C021  FFD9         	movff	_pBDTEntryEP0OutNext,fsr2l
  5220  001294  C022  FFDA         	movff	_pBDTEntryEP0OutNext+1,fsr2h
  5221  001298  0E04               	movlw	4
  5222  00129A  6EDF               	movwf	indf2,c
  5223                           
  5224                           ;usb_device.c: 1753: pBDTEntryEP0OutNext->STAT.Val |= 0x80;
  5225  00129C  C021  FFD9         	movff	_pBDTEntryEP0OutNext,fsr2l
  5226  0012A0  C022  FFDA         	movff	_pBDTEntryEP0OutNext+1,fsr2h
  5227  0012A4  0E00               	movlw	0
  5228  0012A6  8EDB               	bsf	plusw2,7,c
  5229                           
  5230                           ;usb_device.c: 1756: USBStatusStageEnabledFlag2 = 0;
  5231  0012A8  0E00               	movlw	0
  5232  0012AA  0100               	movlb	0	; () banked
  5233  0012AC  6F8A               	movwf	_USBStatusStageEnabledFlag2& (0+255),b	;volatile
  5234                           
  5235                           ; BSR set to: 0
  5236                           ;usb_device.c: 1757: USBStatusStageEnabledFlag1 = 0;
  5237  0012AE  0E00               	movlw	0
  5238  0012B0  0100               	movlb	0	; () banked
  5239  0012B2  6F89               	movwf	_USBStatusStageEnabledFlag1& (0+255),b	;volatile
  5240                           
  5241                           ; BSR set to: 0
  5242                           ;usb_device.c: 1758: if(USBDeferStatusStagePacket == 0)
  5243  0012B4  5023               	movf	_USBDeferStatusStagePacket,w,c	;volatile
  5244  0012B6  A4D8               	btfss	status,2,c
  5245  0012B8  0012               	return	
  5246                           
  5247                           ; BSR set to: 0
  5248                           ;usb_device.c: 1759: {
  5249                           ;usb_device.c: 1760: USBCtrlEPAllowStatusStage();
  5250  0012BA  EC05  F00C         	call	_USBCtrlEPAllowStatusStage	;wreg free
  5251  0012BE  0012               	return	
  5252  0012C0                     __end_of_USBCtrlEPServiceComplete:
  5253                           	opt stack 0
  5254                           pclatu	equ	0xFFB
  5255                           pclath	equ	0xFFA
  5256                           tblptru	equ	0xFF8
  5257                           tblptrh	equ	0xFF7
  5258                           tblptrl	equ	0xFF6
  5259                           tablat	equ	0xFF5
  5260                           prodh	equ	0xFF4
  5261                           prodl	equ	0xFF3
  5262                           intcon	equ	0xFF2
  5263                           postinc0	equ	0xFEE
  5264                           fsr0h	equ	0xFEA
  5265                           fsr0l	equ	0xFE9
  5266                           wreg	equ	0xFE8
  5267                           indf1	equ	0xFE7
  5268                           postinc1	equ	0xFE6
  5269                           postdec1	equ	0xFE5
  5270                           plusw1	equ	0xFE3
  5271                           fsr1h	equ	0xFE2
  5272                           fsr1l	equ	0xFE1
  5273                           indf2	equ	0xFDF
  5274                           postinc2	equ	0xFDE
  5275                           postdec2	equ	0xFDD
  5276                           plusw2	equ	0xFDB
  5277                           fsr2h	equ	0xFDA
  5278                           fsr2l	equ	0xFD9
  5279                           status	equ	0xFD8
  5280                           
  5281 ;; *************** function _USBCtrlEPAllowDataStage *****************
  5282 ;; Defined at:
  5283 ;;		line 1506 in file "usb_device.c"
  5284 ;; Parameters:    Size  Location     Type
  5285 ;;		None
  5286 ;; Auto vars:     Size  Location     Type
  5287 ;;		None
  5288 ;; Return value:  Size  Location     Type
  5289 ;;                  1    wreg      void 
  5290 ;; Registers used:
  5291 ;;		wreg, fsr1l, fsr1h, fsr2l, fsr2h, status,2, status,0, tblptrl, tblptrh, tblptru, cstack
  5292 ;; Tracked objects:
  5293 ;;		On entry : 0/0
  5294 ;;		On exit  : 0/0
  5295 ;;		Unchanged: 0/0
  5296 ;; Data sizes:     COMRAM   BANK0   BANK1 BANK2hh BANK2hl
  5297 ;;      Params:         0       0       0       0       0
  5298 ;;      Locals:         0       0       0       0       0
  5299 ;;      Temps:          0       0       0       0       0
  5300 ;;      Totals:         0       0       0       0       0
  5301 ;;Total ram usage:        0 bytes
  5302 ;; Hardware stack levels used:    1
  5303 ;; Hardware stack levels required when called:    1
  5304 ;; This function calls:
  5305 ;;		_USBCtrlTrfTxService
  5306 ;; This function is called by:
  5307 ;;		_USBCtrlEPServiceComplete
  5308 ;; This function uses a non-reentrant model
  5309 ;;
  5310                           
  5311                           	psect	text21
  5312  001B10                     __ptext21:
  5313                           	opt stack 0
  5314  001B10                     _USBCtrlEPAllowDataStage:
  5315                           	opt stack 22
  5316                           
  5317                           ;usb_device.c: 1508: USBDeferINDataStagePackets = 0;
  5318                           
  5319                           ;incstack = 0
  5320  001B10  0E00               	movlw	0
  5321  001B12  0100               	movlb	0	; () banked
  5322  001B14  6F87               	movwf	_USBDeferINDataStagePackets& (0+255),b	;volatile
  5323                           
  5324                           ;usb_device.c: 1509: USBDeferOUTDataStagePackets = 0;
  5325  001B16  0E00               	movlw	0
  5326  001B18  0100               	movlb	0	; () banked
  5327  001B1A  6F88               	movwf	_USBDeferOUTDataStagePackets& (0+255),b	;volatile
  5328                           
  5329                           ; BSR set to: 0
  5330                           ;usb_device.c: 1511: if(controlTransferState == 2)
  5331  001B1C  0E02               	movlw	2
  5332  001B1E  1825               	xorwf	_controlTransferState,w,c	;volatile
  5333  001B20  A4D8               	btfss	status,2,c
  5334  001B22  D01F               	goto	i2l3023
  5335                           
  5336                           ; BSR set to: 0
  5337                           ;usb_device.c: 1512: {
  5338                           ;usb_device.c: 1514: pBDTEntryEP0OutNext->CNT = 8;
  5339  001B24  EE20 F001          	lfsr	2,1
  5340  001B28  5021               	movf	_pBDTEntryEP0OutNext,w,c
  5341  001B2A  26D9               	addwf	fsr2l,f,c
  5342  001B2C  5022               	movf	_pBDTEntryEP0OutNext+1,w,c
  5343  001B2E  22DA               	addwfc	fsr2h,f,c
  5344  001B30  0E08               	movlw	8
  5345  001B32  6EDF               	movwf	indf2,c
  5346                           
  5347                           ;usb_device.c: 1515: pBDTEntryEP0OutNext->ADR = ((uint16_t)(&CtrlTrfData));
  5348  001B34  EE20 F002          	lfsr	2,2
  5349  001B38  5021               	movf	_pBDTEntryEP0OutNext,w,c
  5350  001B3A  26D9               	addwf	fsr2l,f,c
  5351  001B3C  5022               	movf	_pBDTEntryEP0OutNext+1,w,c
  5352  001B3E  22DA               	addwfc	fsr2h,f,c
  5353  001B40  0E28               	movlw	40
  5354  001B42  6EDE               	movwf	postinc2,c
  5355  001B44  0E02               	movlw	2
  5356  001B46  6EDD               	movwf	postdec2,c
  5357                           
  5358                           ; BSR set to: 0
  5359                           ;usb_device.c: 1516: pBDTEntryEP0OutNext->STAT.Val = 0x40|(0x08 & 0x08);
  5360  001B48  C021  FFD9         	movff	_pBDTEntryEP0OutNext,fsr2l
  5361  001B4C  C022  FFDA         	movff	_pBDTEntryEP0OutNext+1,fsr2h
  5362  001B50  0E48               	movlw	72
  5363  001B52  6EDF               	movwf	indf2,c
  5364                           
  5365                           ; BSR set to: 0
  5366                           ;usb_device.c: 1517: pBDTEntryEP0OutNext->STAT.Val |= 0x80;
  5367  001B54  C021  FFD9         	movff	_pBDTEntryEP0OutNext,fsr2l
  5368  001B58  C022  FFDA         	movff	_pBDTEntryEP0OutNext+1,fsr2h
  5369  001B5C  0E00               	movlw	0
  5370  001B5E  8EDB               	bsf	plusw2,7,c
  5371                           
  5372                           ;usb_device.c: 1518: }
  5373  001B60  0012               	return	
  5374  001B62                     i2l3023:
  5375                           
  5376                           ; BSR set to: 0
  5377                           ;usb_device.c: 1519: else
  5378                           ;usb_device.c: 1520: {
  5379                           ;usb_device.c: 1523: if(SetupPkt.wLength < inPipes[0].wCount.Val)
  5380  001B62  500D               	movf	_inPipes+4,w,c	;volatile
  5381  001B64  0102               	movlb	2	; () banked
  5382  001B66  5D26               	subwf	38,w,b	;volatile
  5383  001B68  500E               	movf	_inPipes+5,w,c	;volatile
  5384  001B6A  0102               	movlb	2	; () banked
  5385  001B6C  5927               	subwfb	39,w,b	;volatile
  5386  001B6E  B0D8               	btfsc	status,0,c
  5387  001B70  D004               	goto	i2l3027
  5388                           
  5389                           ; BSR set to: 2
  5390                           ;usb_device.c: 1524: {
  5391                           ;usb_device.c: 1525: inPipes[0].wCount.Val = SetupPkt.wLength;
  5392  001B72  C226 F00D          	movff	550,_inPipes+4	;volatile
  5393  001B76  C227 F00E          	movff	551,_inPipes+5	;volatile
  5394  001B7A                     i2l3027:
  5395                           
  5396                           ; BSR set to: 2
  5397                           ;usb_device.c: 1526: }
  5398                           ;usb_device.c: 1527: USBCtrlTrfTxService();
  5399  001B7A  EC6C  F00C         	call	_USBCtrlTrfTxService	;wreg free
  5400                           
  5401                           ;usb_device.c: 1532: pBDTEntryIn[0]->ADR = ((uint16_t)(&CtrlTrfData));
  5402  001B7E  EE20 F002          	lfsr	2,2
  5403  001B82  5015               	movf	_pBDTEntryIn,w,c
  5404  001B84  26D9               	addwf	fsr2l,f,c
  5405  001B86  5016               	movf	_pBDTEntryIn+1,w,c
  5406  001B88  22DA               	addwfc	fsr2h,f,c
  5407  001B8A  0E28               	movlw	40
  5408  001B8C  6EDE               	movwf	postinc2,c
  5409  001B8E  0E02               	movlw	2
  5410  001B90  6EDD               	movwf	postdec2,c
  5411                           
  5412                           ;usb_device.c: 1533: pBDTEntryIn[0]->STAT.Val = 0x40|(0x08 & 0x08);
  5413  001B92  C015  FFD9         	movff	_pBDTEntryIn,fsr2l
  5414  001B96  C016  FFDA         	movff	_pBDTEntryIn+1,fsr2h
  5415  001B9A  0E48               	movlw	72
  5416  001B9C  6EDF               	movwf	indf2,c
  5417                           
  5418                           ;usb_device.c: 1534: pBDTEntryIn[0]->STAT.Val |= 0x80;
  5419  001B9E  C015  FFD9         	movff	_pBDTEntryIn,fsr2l
  5420  001BA2  C016  FFDA         	movff	_pBDTEntryIn+1,fsr2h
  5421  001BA6  0E00               	movlw	0
  5422  001BA8  8EDB               	bsf	plusw2,7,c
  5423  001BAA  0012               	return	
  5424  001BAC                     __end_of_USBCtrlEPAllowDataStage:
  5425                           	opt stack 0
  5426                           pclatu	equ	0xFFB
  5427                           pclath	equ	0xFFA
  5428                           tblptru	equ	0xFF8
  5429                           tblptrh	equ	0xFF7
  5430                           tblptrl	equ	0xFF6
  5431                           tablat	equ	0xFF5
  5432                           prodh	equ	0xFF4
  5433                           prodl	equ	0xFF3
  5434                           intcon	equ	0xFF2
  5435                           postinc0	equ	0xFEE
  5436                           fsr0h	equ	0xFEA
  5437                           fsr0l	equ	0xFE9
  5438                           wreg	equ	0xFE8
  5439                           indf1	equ	0xFE7
  5440                           postinc1	equ	0xFE6
  5441                           postdec1	equ	0xFE5
  5442                           plusw1	equ	0xFE3
  5443                           fsr1h	equ	0xFE2
  5444                           fsr1l	equ	0xFE1
  5445                           indf2	equ	0xFDF
  5446                           postinc2	equ	0xFDE
  5447                           postdec2	equ	0xFDD
  5448                           plusw2	equ	0xFDB
  5449                           fsr2h	equ	0xFDA
  5450                           fsr2l	equ	0xFD9
  5451                           status	equ	0xFD8
  5452                           
  5453 ;; *************** function _USBCheckStdRequest *****************
  5454 ;; Defined at:
  5455 ;;		line 2703 in file "usb_device.c"
  5456 ;; Parameters:    Size  Location     Type
  5457 ;;		None
  5458 ;; Auto vars:     Size  Location     Type
  5459 ;;		None
  5460 ;; Return value:  Size  Location     Type
  5461 ;;                  1    wreg      void 
  5462 ;; Registers used:
  5463 ;;		wreg, fsr1l, fsr1h, fsr2l, fsr2h, status,2, status,0, tblptrl, tblptrh, tblptru, prodl, prodh, cstack
  5464 ;; Tracked objects:
  5465 ;;		On entry : 0/0
  5466 ;;		On exit  : 0/0
  5467 ;;		Unchanged: 0/0
  5468 ;; Data sizes:     COMRAM   BANK0   BANK1 BANK2hh BANK2hl
  5469 ;;      Params:         0       0       0       0       0
  5470 ;;      Locals:         0       0       0       0       0
  5471 ;;      Temps:          0       0       0       0       0
  5472 ;;      Totals:         0       0       0       0       0
  5473 ;;Total ram usage:        0 bytes
  5474 ;; Hardware stack levels used:    1
  5475 ;; Hardware stack levels required when called:    5
  5476 ;; This function calls:
  5477 ;;		_USBStdFeatureReqHandler
  5478 ;;		_USBStdGetDscHandler
  5479 ;;		_USBStdGetStatusHandler
  5480 ;;		_USBStdSetCfgHandler
  5481 ;;		_USER_USB_CALLBACK_EVENT_HANDLER
  5482 ;; This function is called by:
  5483 ;;		_USBCtrlTrfSetupHandler
  5484 ;; This function uses a non-reentrant model
  5485 ;;
  5486                           
  5487                           	psect	text22
  5488  001658                     __ptext22:
  5489                           	opt stack 0
  5490  001658                     _USBCheckStdRequest:
  5491                           	opt stack 19
  5492                           
  5493                           ;usb_device.c: 2705: if(SetupPkt.RequestType != (0x00>>5)) return;
  5494                           
  5495                           ;incstack = 0
  5496  001658  0102               	movlb	2	; () banked
  5497  00165A  3920               	swapf	32,w,b	;volatile
  5498  00165C  32E8               	rrcf	wreg,f,c
  5499  00165E  0B03               	andlw	3
  5500  001660  0900               	iorlw	0
  5501  001662  A4D8               	btfss	status,2,c
  5502  001664  0012               	return	
  5503  001666  D043               	goto	i2l3351
  5504  001668                     i2l602:
  5505                           
  5506                           ; BSR set to: 2
  5507                           ;usb_device.c: 2710: inPipes[0].info.bits.busy = 1;
  5508  001668  8E0C               	bsf	_inPipes+3,7,c	;volatile
  5509                           
  5510                           ; BSR set to: 2
  5511                           ;usb_device.c: 2711: USBDeviceState = ADR_PENDING_STATE;
  5512  00166A  0E08               	movlw	8
  5513  00166C  6E24               	movwf	_USBDeviceState,c	;volatile
  5514                           
  5515                           ;usb_device.c: 2713: break;
  5516  00166E  0012               	return	
  5517  001670                     i2l3321:
  5518                           
  5519                           ; BSR set to: 2
  5520                           ;usb_device.c: 2715: USBStdGetDscHandler();
  5521  001670  EC50  F008         	call	_USBStdGetDscHandler	;wreg free
  5522                           
  5523                           ;usb_device.c: 2716: break;
  5524  001674  0012               	return	
  5525  001676                     i2l3323:
  5526                           
  5527                           ;usb_device.c: 2718: USBStdSetCfgHandler();
  5528  001676  ECBE  F00A         	call	_USBStdSetCfgHandler	;wreg free
  5529                           
  5530                           ;usb_device.c: 2719: break;
  5531  00167A  0012               	return	
  5532  00167C                     i2l3325:
  5533                           
  5534                           ;usb_device.c: 2721: inPipes[0].pSrc.bRam = (uint8_t*)&USBActiveConfiguration;
  5535  00167C  0E28               	movlw	low _USBActiveConfiguration
  5536  00167E  6E09               	movwf	_inPipes,c	;volatile
  5537  001680  0E00               	movlw	high _USBActiveConfiguration
  5538  001682  6E0A               	movwf	_inPipes+1,c	;volatile
  5539                           
  5540                           ;usb_device.c: 2722: inPipes[0].info.bits.ctrl_trf_mem = 0x01;
  5541  001684  800C               	bsf	_inPipes+3,0,c	;volatile
  5542                           
  5543                           ;usb_device.c: 2723: inPipes[0].wCount.v[0] = 1;
  5544  001686  0E01               	movlw	1
  5545  001688  6E0D               	movwf	_inPipes+4,c	;volatile
  5546                           
  5547                           ;usb_device.c: 2724: inPipes[0].info.bits.busy = 1;
  5548  00168A  8E0C               	bsf	_inPipes+3,7,c	;volatile
  5549                           
  5550                           ;usb_device.c: 2725: break;
  5551  00168C  0012               	return	
  5552  00168E                     i2l3333:
  5553                           
  5554                           ;usb_device.c: 2727: USBStdGetStatusHandler();
  5555  00168E  EC30  F00D         	call	_USBStdGetStatusHandler	;wreg free
  5556                           
  5557                           ;usb_device.c: 2728: break;
  5558  001692  0012               	return	
  5559  001694                     i2l3335:
  5560                           
  5561                           ;usb_device.c: 2730: case 3:
  5562                           ;usb_device.c: 2731: USBStdFeatureReqHandler();
  5563  001694  EC79  F004         	call	_USBStdFeatureReqHandler	;wreg free
  5564                           
  5565                           ;usb_device.c: 2732: break;
  5566  001698  0012               	return	
  5567  00169A                     i2l3337:
  5568                           
  5569                           ;usb_device.c: 2734: inPipes[0].pSrc.bRam = (uint8_t*)&USBAlternateInterface[SetupPkt.bI
      +                          ntfID];
  5570  00169A  0102               	movlb	2	; () banked
  5571  00169C  5124               	movf	36,w,b	;volatile
  5572  00169E  0D01               	mullw	1
  5573  0016A0  0E29               	movlw	low _USBAlternateInterface
  5574  0016A2  24F3               	addwf	prodl,w,c
  5575  0016A4  6E09               	movwf	_inPipes,c	;volatile
  5576  0016A6  0E00               	movlw	high _USBAlternateInterface
  5577  0016A8  20F4               	addwfc	prodh,w,c
  5578  0016AA  6E0A               	movwf	_inPipes+1,c	;volatile
  5579                           
  5580                           ; BSR set to: 2
  5581                           ;usb_device.c: 2735: inPipes[0].info.bits.ctrl_trf_mem = 0x01;
  5582  0016AC  800C               	bsf	_inPipes+3,0,c	;volatile
  5583                           
  5584                           ; BSR set to: 2
  5585                           ;usb_device.c: 2736: inPipes[0].wCount.v[0] = 1;
  5586  0016AE  0E01               	movlw	1
  5587  0016B0  6E0D               	movwf	_inPipes+4,c	;volatile
  5588                           
  5589                           ; BSR set to: 2
  5590                           ;usb_device.c: 2737: inPipes[0].info.bits.busy = 1;
  5591  0016B2  8E0C               	bsf	_inPipes+3,7,c	;volatile
  5592                           
  5593                           ;usb_device.c: 2738: break;
  5594  0016B4  0012               	return	
  5595  0016B6                     i2l611:
  5596                           
  5597                           ; BSR set to: 2
  5598                           ;usb_device.c: 2740: inPipes[0].info.bits.busy = 1;
  5599  0016B6  8E0C               	bsf	_inPipes+3,7,c	;volatile
  5600                           
  5601                           ; BSR set to: 2
  5602                           ;usb_device.c: 2741: USBAlternateInterface[SetupPkt.bIntfID] = SetupPkt.bAltID;
  5603  0016B8  0102               	movlb	2	; () banked
  5604  0016BA  5124               	movf	36,w,b	;volatile
  5605  0016BC  0D01               	mullw	1
  5606  0016BE  0E29               	movlw	low _USBAlternateInterface
  5607  0016C0  24F3               	addwf	prodl,w,c
  5608  0016C2  6ED9               	movwf	fsr2l,c
  5609  0016C4  0E00               	movlw	high _USBAlternateInterface
  5610  0016C6  20F4               	addwfc	prodh,w,c
  5611  0016C8  6EDA               	movwf	fsr2h,c
  5612  0016CA  C222 FFDF          	movff	546,indf2	;volatile
  5613                           
  5614                           ;usb_device.c: 2742: break;
  5615  0016CE  0012               	return	
  5616  0016D0                     i2l3347:
  5617                           
  5618                           ; BSR set to: 2
  5619                           ;usb_device.c: 2744: USER_USB_CALLBACK_EVENT_HANDLER(EVENT_SET_DESCRIPTOR,0,0);
  5620  0016D0  0E00               	movlw	0
  5621  0016D2  6E38               	movwf	USER_USB_CALLBACK_EVENT_HANDLER@event+1,c
  5622  0016D4  0E02               	movlw	2
  5623  0016D6  6E37               	movwf	USER_USB_CALLBACK_EVENT_HANDLER@event,c
  5624  0016D8  0E00               	movlw	0
  5625  0016DA  6E39               	movwf	USER_USB_CALLBACK_EVENT_HANDLER@pdata,c
  5626  0016DC  0E00               	movlw	0
  5627  0016DE  6E3A               	movwf	USER_USB_CALLBACK_EVENT_HANDLER@pdata+1,c
  5628  0016E0  0E00               	movlw	0
  5629  0016E2  6E3C               	movwf	USER_USB_CALLBACK_EVENT_HANDLER@size+1,c
  5630  0016E4  0E00               	movlw	0
  5631  0016E6  6E3B               	movwf	USER_USB_CALLBACK_EVENT_HANDLER@size,c
  5632  0016E8  EC69  F00E         	call	_USER_USB_CALLBACK_EVENT_HANDLER	;wreg free
  5633                           
  5634                           ;usb_device.c: 2749: }
  5635                           
  5636                           ;usb_device.c: 2748: break;
  5637                           
  5638                           ;usb_device.c: 2747: default:
  5639                           
  5640                           ;usb_device.c: 2746: case 12:
  5641                           
  5642                           ;usb_device.c: 2745: break;
  5643  0016EC  0012               	return	
  5644  0016EE                     i2l3351:
  5645  0016EE  0102               	movlb	2	; () banked
  5646  0016F0  5121               	movf	33,w,b	;volatile
  5647                           
  5648                           ; Switch size 1, requested type "space"
  5649                           ; Number of cases is 11, Range of values is 0 to 12
  5650                           ; switch strategies available:
  5651                           ; Name         Instructions Cycles
  5652                           ; simple_byte           34    18 (average)
  5653                           ;	Chosen strategy is simple_byte
  5654  0016F2  0A00               	xorlw	0	; case 0
  5655  0016F4  B4D8               	btfsc	status,2,c
  5656  0016F6  D7CB               	goto	i2l3333
  5657  0016F8  0A01               	xorlw	1	; case 1
  5658  0016FA  B4D8               	btfsc	status,2,c
  5659  0016FC  D7CB               	goto	i2l3335
  5660  0016FE  0A02               	xorlw	2	; case 3
  5661  001700  B4D8               	btfsc	status,2,c
  5662  001702  D7C8               	goto	i2l3335
  5663  001704  0A06               	xorlw	6	; case 5
  5664  001706  B4D8               	btfsc	status,2,c
  5665  001708  D7AF               	goto	i2l602
  5666  00170A  0A03               	xorlw	3	; case 6
  5667  00170C  B4D8               	btfsc	status,2,c
  5668  00170E  D7B0               	goto	i2l3321
  5669  001710  0A01               	xorlw	1	; case 7
  5670  001712  B4D8               	btfsc	status,2,c
  5671  001714  D7DD               	goto	i2l3347
  5672  001716  0A0F               	xorlw	15	; case 8
  5673  001718  B4D8               	btfsc	status,2,c
  5674  00171A  D7B0               	goto	i2l3325
  5675  00171C  0A01               	xorlw	1	; case 9
  5676  00171E  B4D8               	btfsc	status,2,c
  5677  001720  D7AA               	goto	i2l3323
  5678  001722  0A03               	xorlw	3	; case 10
  5679  001724  B4D8               	btfsc	status,2,c
  5680  001726  D7B9               	goto	i2l3337
  5681  001728  0A01               	xorlw	1	; case 11
  5682  00172A  B4D8               	btfsc	status,2,c
  5683  00172C  D7C4               	goto	i2l611
  5684  00172E  0A07               	xorlw	7	; case 12
  5685  001730  0012               	return	
  5686  001732                     __end_of_USBCheckStdRequest:
  5687                           	opt stack 0
  5688                           pclatu	equ	0xFFB
  5689                           pclath	equ	0xFFA
  5690                           tblptru	equ	0xFF8
  5691                           tblptrh	equ	0xFF7
  5692                           tblptrl	equ	0xFF6
  5693                           tablat	equ	0xFF5
  5694                           prodh	equ	0xFF4
  5695                           prodl	equ	0xFF3
  5696                           intcon	equ	0xFF2
  5697                           postinc0	equ	0xFEE
  5698                           fsr0h	equ	0xFEA
  5699                           fsr0l	equ	0xFE9
  5700                           wreg	equ	0xFE8
  5701                           indf1	equ	0xFE7
  5702                           postinc1	equ	0xFE6
  5703                           postdec1	equ	0xFE5
  5704                           plusw1	equ	0xFE3
  5705                           fsr1h	equ	0xFE2
  5706                           fsr1l	equ	0xFE1
  5707                           indf2	equ	0xFDF
  5708                           postinc2	equ	0xFDE
  5709                           postdec2	equ	0xFDD
  5710                           plusw2	equ	0xFDB
  5711                           fsr2h	equ	0xFDA
  5712                           fsr2l	equ	0xFD9
  5713                           status	equ	0xFD8
  5714                           
  5715 ;; *************** function _USBStdSetCfgHandler *****************
  5716 ;; Defined at:
  5717 ;;		line 1986 in file "usb_device.c"
  5718 ;; Parameters:    Size  Location     Type
  5719 ;;		None
  5720 ;; Auto vars:     Size  Location     Type
  5721 ;;  i               1   20[COMRAM] unsigned char 
  5722 ;; Return value:  Size  Location     Type
  5723 ;;                  1    wreg      void 
  5724 ;; Registers used:
  5725 ;;		wreg, fsr2l, fsr2h, status,2, status,0, prodl, prodh, cstack
  5726 ;; Tracked objects:
  5727 ;;		On entry : 0/0
  5728 ;;		On exit  : 0/0
  5729 ;;		Unchanged: 0/0
  5730 ;; Data sizes:     COMRAM   BANK0   BANK1 BANK2hh BANK2hl
  5731 ;;      Params:         0       0       0       0       0
  5732 ;;      Locals:         1       0       0       0       0
  5733 ;;      Temps:          0       0       0       0       0
  5734 ;;      Totals:         1       0       0       0       0
  5735 ;;Total ram usage:        1 bytes
  5736 ;; Hardware stack levels used:    1
  5737 ;; Hardware stack levels required when called:    4
  5738 ;; This function calls:
  5739 ;;		_USER_USB_CALLBACK_EVENT_HANDLER
  5740 ;;		i2_memset
  5741 ;; This function is called by:
  5742 ;;		_USBCheckStdRequest
  5743 ;; This function uses a non-reentrant model
  5744 ;;
  5745                           
  5746                           	psect	text23
  5747  00157C                     __ptext23:
  5748                           	opt stack 0
  5749  00157C                     _USBStdSetCfgHandler:
  5750                           	opt stack 19
  5751                           
  5752                           ;usb_device.c: 1988: uint8_t i;
  5753                           ;usb_device.c: 1991: inPipes[0].info.bits.busy = 1;
  5754                           
  5755                           ;incstack = 0
  5756  00157C  8E0C               	bsf	_inPipes+3,7,c	;volatile
  5757                           
  5758                           ;usb_device.c: 1994: memset((void*)&UEP1,0x00,(1));;
  5759  00157E  0E54               	movlw	84
  5760  001580  6E2B               	movwf	i2memset@p1,c
  5761  001582  0E0F               	movlw	15
  5762  001584  6E2C               	movwf	i2memset@p1+1,c
  5763  001586  0E00               	movlw	0
  5764  001588  6E2E               	movwf	i2memset@c+1,c
  5765  00158A  0E00               	movlw	0
  5766  00158C  6E2D               	movwf	i2memset@c,c
  5767  00158E  0E00               	movlw	0
  5768  001590  6E30               	movwf	i2memset@n+1,c
  5769  001592  0E01               	movlw	1
  5770  001594  6E2F               	movwf	i2memset@n,c
  5771  001596  EC3D  F010         	call	i2_memset	;wreg free
  5772                           
  5773                           ;usb_device.c: 1997: memset((void*)&BDT[0], 0x00, sizeof(BDT));
  5774  00159A  0E00               	movlw	0
  5775  00159C  6E2B               	movwf	i2memset@p1,c
  5776  00159E  0E02               	movlw	2
  5777  0015A0  6E2C               	movwf	i2memset@p1+1,c
  5778  0015A2  0E00               	movlw	0
  5779  0015A4  6E2E               	movwf	i2memset@c+1,c
  5780  0015A6  0E00               	movlw	0
  5781  0015A8  6E2D               	movwf	i2memset@c,c
  5782  0015AA  0E00               	movlw	0
  5783  0015AC  6E30               	movwf	i2memset@n+1,c
  5784  0015AE  0E20               	movlw	32
  5785  0015B0  6E2F               	movwf	i2memset@n,c
  5786  0015B2  EC3D  F010         	call	i2_memset	;wreg free
  5787                           
  5788                           ;usb_device.c: 2000: UCONbits.PPBRST = 1;
  5789  0015B6  8C64               	bsf	3940,6,c	;volatile
  5790                           
  5791                           ;usb_device.c: 2005: for(i = 0; i < (uint8_t)(1+1u); i++)
  5792  0015B8  0E00               	movlw	0
  5793  0015BA  6E3F               	movwf	USBStdSetCfgHandler@i,c
  5794  0015BC                     i2l3043:
  5795  0015BC  0E01               	movlw	1
  5796  0015BE  643F               	cpfsgt	USBStdSetCfgHandler@i,c
  5797  0015C0  D001               	goto	i2l3047
  5798  0015C2  D016               	goto	i2l3053
  5799  0015C4                     i2l3047:
  5800                           
  5801                           ;usb_device.c: 2006: {
  5802                           ;usb_device.c: 2007: ep_data_in[i].Val = 0u;
  5803  0015C4  503F               	movf	USBStdSetCfgHandler@i,w,c
  5804  0015C6  0D01               	mullw	1
  5805  0015C8  0E1B               	movlw	low _ep_data_in
  5806  0015CA  24F3               	addwf	prodl,w,c
  5807  0015CC  6ED9               	movwf	fsr2l,c
  5808  0015CE  0E00               	movlw	high _ep_data_in
  5809  0015D0  20F4               	addwfc	prodh,w,c
  5810  0015D2  6EDA               	movwf	fsr2h,c
  5811  0015D4  0E00               	movlw	0
  5812  0015D6  6EDF               	movwf	indf2,c
  5813                           
  5814                           ;usb_device.c: 2008: ep_data_out[i].Val = 0u;
  5815  0015D8  503F               	movf	USBStdSetCfgHandler@i,w,c
  5816  0015DA  0D01               	mullw	1
  5817  0015DC  0E1D               	movlw	low _ep_data_out
  5818  0015DE  24F3               	addwf	prodl,w,c
  5819  0015E0  6ED9               	movwf	fsr2l,c
  5820  0015E2  0E00               	movlw	high _ep_data_out
  5821  0015E4  20F4               	addwfc	prodh,w,c
  5822  0015E6  6EDA               	movwf	fsr2h,c
  5823  0015E8  0E00               	movlw	0
  5824  0015EA  6EDF               	movwf	indf2,c
  5825  0015EC  2A3F               	incf	USBStdSetCfgHandler@i,f,c
  5826  0015EE  D7E6               	goto	i2l3043
  5827  0015F0                     i2l3053:
  5828                           
  5829                           ;usb_device.c: 2009: }
  5830                           ;usb_device.c: 2012: memset((void*)&USBAlternateInterface,0x00,1);
  5831  0015F0  0E29               	movlw	low _USBAlternateInterface
  5832  0015F2  6E2B               	movwf	i2memset@p1,c
  5833  0015F4  0E00               	movlw	high _USBAlternateInterface
  5834  0015F6  6E2C               	movwf	i2memset@p1+1,c
  5835  0015F8  0E00               	movlw	0
  5836  0015FA  6E2E               	movwf	i2memset@c+1,c
  5837  0015FC  0E00               	movlw	0
  5838  0015FE  6E2D               	movwf	i2memset@c,c
  5839  001600  0E00               	movlw	0
  5840  001602  6E30               	movwf	i2memset@n+1,c
  5841  001604  0E01               	movlw	1
  5842  001606  6E2F               	movwf	i2memset@n,c
  5843  001608  EC3D  F010         	call	i2_memset	;wreg free
  5844                           
  5845                           ;usb_device.c: 2015: UCONbits.PPBRST = 0;
  5846  00160C  9C64               	bcf	3940,6,c	;volatile
  5847                           
  5848                           ;usb_device.c: 2017: pBDTEntryIn[0] = (volatile BDT_ENTRY*)&BDT[2];
  5849  00160E  0E08               	movlw	8
  5850  001610  6E15               	movwf	_pBDTEntryIn,c
  5851  001612  0E02               	movlw	2
  5852  001614  6E16               	movwf	_pBDTEntryIn+1,c
  5853                           
  5854                           ;usb_device.c: 2020: pBDTEntryEP0OutCurrent = (volatile BDT_ENTRY*)&BDT[0];
  5855  001616  0E00               	movlw	0
  5856  001618  6E1F               	movwf	_pBDTEntryEP0OutCurrent,c
  5857  00161A  0E02               	movlw	2
  5858  00161C  6E20               	movwf	_pBDTEntryEP0OutCurrent+1,c
  5859                           
  5860                           ;usb_device.c: 2021: pBDTEntryEP0OutNext = pBDTEntryEP0OutCurrent;
  5861  00161E  C01F  F021         	movff	_pBDTEntryEP0OutCurrent,_pBDTEntryEP0OutNext
  5862  001622  C020  F022         	movff	_pBDTEntryEP0OutCurrent+1,_pBDTEntryEP0OutNext+1
  5863                           
  5864                           ;usb_device.c: 2024: USBActiveConfiguration = SetupPkt.bConfigurationValue;
  5865  001626  C222 F028          	movff	546,_USBActiveConfiguration	;volatile
  5866                           
  5867                           ;usb_device.c: 2027: if(USBActiveConfiguration == 0)
  5868  00162A  5028               	movf	_USBActiveConfiguration,w,c	;volatile
  5869  00162C  A4D8               	btfss	status,2,c
  5870  00162E  D003               	goto	i2l3069
  5871                           
  5872                           ;usb_device.c: 2028: {
  5873                           ;usb_device.c: 2030: USBDeviceState = ADDRESS_STATE;
  5874  001630  0E10               	movlw	16
  5875  001632  6E24               	movwf	_USBDeviceState,c	;volatile
  5876                           
  5877                           ;usb_device.c: 2031: }
  5878  001634  0012               	return	
  5879  001636                     i2l3069:
  5880                           
  5881                           ;usb_device.c: 2032: else
  5882                           ;usb_device.c: 2033: {
  5883                           ;usb_device.c: 2035: USER_USB_CALLBACK_EVENT_HANDLER(EVENT_CONFIGURED,(void*)&USBActiveC
      +                          onfiguration,1);
  5884  001636  0E00               	movlw	0
  5885  001638  6E38               	movwf	USER_USB_CALLBACK_EVENT_HANDLER@event+1,c
  5886  00163A  0E01               	movlw	1
  5887  00163C  6E37               	movwf	USER_USB_CALLBACK_EVENT_HANDLER@event,c
  5888  00163E  0E28               	movlw	low _USBActiveConfiguration
  5889  001640  6E39               	movwf	USER_USB_CALLBACK_EVENT_HANDLER@pdata,c
  5890  001642  0E00               	movlw	high _USBActiveConfiguration
  5891  001644  6E3A               	movwf	USER_USB_CALLBACK_EVENT_HANDLER@pdata+1,c
  5892  001646  0E00               	movlw	0
  5893  001648  6E3C               	movwf	USER_USB_CALLBACK_EVENT_HANDLER@size+1,c
  5894  00164A  0E01               	movlw	1
  5895  00164C  6E3B               	movwf	USER_USB_CALLBACK_EVENT_HANDLER@size,c
  5896  00164E  EC69  F00E         	call	_USER_USB_CALLBACK_EVENT_HANDLER	;wreg free
  5897                           
  5898                           ;usb_device.c: 2040: USBDeviceState = CONFIGURED_STATE;
  5899  001652  0E20               	movlw	32
  5900  001654  6E24               	movwf	_USBDeviceState,c	;volatile
  5901  001656  0012               	return	
  5902  001658                     __end_of_USBStdSetCfgHandler:
  5903                           	opt stack 0
  5904                           pclatu	equ	0xFFB
  5905                           pclath	equ	0xFFA
  5906                           tblptru	equ	0xFF8
  5907                           tblptrh	equ	0xFF7
  5908                           tblptrl	equ	0xFF6
  5909                           tablat	equ	0xFF5
  5910                           prodh	equ	0xFF4
  5911                           prodl	equ	0xFF3
  5912                           intcon	equ	0xFF2
  5913                           postinc0	equ	0xFEE
  5914                           fsr0h	equ	0xFEA
  5915                           fsr0l	equ	0xFE9
  5916                           wreg	equ	0xFE8
  5917                           indf1	equ	0xFE7
  5918                           postinc1	equ	0xFE6
  5919                           postdec1	equ	0xFE5
  5920                           plusw1	equ	0xFE3
  5921                           fsr1h	equ	0xFE2
  5922                           fsr1l	equ	0xFE1
  5923                           indf2	equ	0xFDF
  5924                           postinc2	equ	0xFDE
  5925                           postdec2	equ	0xFDD
  5926                           plusw2	equ	0xFDB
  5927                           fsr2h	equ	0xFDA
  5928                           fsr2l	equ	0xFD9
  5929                           status	equ	0xFD8
  5930                           
  5931 ;; *************** function i2_memset *****************
  5932 ;; Defined at:
  5933 ;;		line 8 in file "/Applications/microchip/xc8/v1.37/sources/common/memset.c"
  5934 ;; Parameters:    Size  Location     Type
  5935 ;;  p1              2    0[COMRAM] PTR void 
  5936 ;;		 -> USBAlternateInterface(1), BDT(32), UEP1(1), inputReport(8), 
  5937 ;;  c               2    2[COMRAM] int 
  5938 ;;  n               2    4[COMRAM] unsigned int 
  5939 ;; Auto vars:     Size  Location     Type
  5940 ;;  memset          2    6[COMRAM] PTR unsigned char 
  5941 ;;		 -> USBAlternateInterface(1), BDT(32), UEP1(1), inputReport(8), 
  5942 ;; Return value:  Size  Location     Type
  5943 ;;                  2    0[COMRAM] PTR void 
  5944 ;; Registers used:
  5945 ;;		wreg, fsr2l, fsr2h, status,2, status,0
  5946 ;; Tracked objects:
  5947 ;;		On entry : 0/0
  5948 ;;		On exit  : 0/0
  5949 ;;		Unchanged: 0/0
  5950 ;; Data sizes:     COMRAM   BANK0   BANK1 BANK2hh BANK2hl
  5951 ;;      Params:         6       0       0       0       0
  5952 ;;      Locals:         2       0       0       0       0
  5953 ;;      Temps:          0       0       0       0       0
  5954 ;;      Totals:         8       0       0       0       0
  5955 ;;Total ram usage:        8 bytes
  5956 ;; Hardware stack levels used:    1
  5957 ;; This function calls:
  5958 ;;		Nothing
  5959 ;; This function is called by:
  5960 ;;		_USBStdSetCfgHandler
  5961 ;;		i2_USBDeviceInit
  5962 ;; This function uses a non-reentrant model
  5963 ;;
  5964                           
  5965                           	psect	text24
  5966  00207A                     __ptext24:
  5967                           	opt stack 0
  5968  00207A                     i2_memset:
  5969                           	opt stack 25
  5970                           
  5971                           ;incstack = 0
  5972  00207A  C02B  F031         	movff	i2memset@p1,i2memset@p
  5973  00207E  C02C  F032         	movff	i2memset@p1+1,i2memset@p+1
  5974  002082  D008               	goto	i2l2977
  5975  002084                     i2l2973:
  5976  002084  C031  FFD9         	movff	i2memset@p,fsr2l
  5977  002088  C032  FFDA         	movff	i2memset@p+1,fsr2h
  5978  00208C  C02D  FFDF         	movff	i2memset@c,indf2
  5979  002090  4A31               	infsnz	i2memset@p,f,c
  5980  002092  2A32               	incf	i2memset@p+1,f,c
  5981  002094                     i2l2977:
  5982  002094  062F               	decf	i2memset@n,f,c
  5983  002096  A0D8               	btfss	status,0,c
  5984  002098  0630               	decf	i2memset@n+1,f,c
  5985  00209A  282F               	incf	i2memset@n,w,c
  5986  00209C  E1F3               	bnz	i2l2973
  5987  00209E  2830               	incf	i2memset@n+1,w,c
  5988  0020A0  B4D8               	btfsc	status,2,c
  5989  0020A2  0012               	return	
  5990  0020A4  D7EF               	goto	i2l2973
  5991  0020A6                     __end_ofi2_memset:
  5992                           	opt stack 0
  5993                           pclatu	equ	0xFFB
  5994                           pclath	equ	0xFFA
  5995                           tblptru	equ	0xFF8
  5996                           tblptrh	equ	0xFF7
  5997                           tblptrl	equ	0xFF6
  5998                           tablat	equ	0xFF5
  5999                           prodh	equ	0xFF4
  6000                           prodl	equ	0xFF3
  6001                           intcon	equ	0xFF2
  6002                           postinc0	equ	0xFEE
  6003                           fsr0h	equ	0xFEA
  6004                           fsr0l	equ	0xFE9
  6005                           wreg	equ	0xFE8
  6006                           indf1	equ	0xFE7
  6007                           postinc1	equ	0xFE6
  6008                           postdec1	equ	0xFE5
  6009                           plusw1	equ	0xFE3
  6010                           fsr1h	equ	0xFE2
  6011                           fsr1l	equ	0xFE1
  6012                           indf2	equ	0xFDF
  6013                           postinc2	equ	0xFDE
  6014                           postdec2	equ	0xFDD
  6015                           plusw2	equ	0xFDB
  6016                           fsr2h	equ	0xFDA
  6017                           fsr2l	equ	0xFD9
  6018                           status	equ	0xFD8
  6019                           
  6020 ;; *************** function _USBStdGetStatusHandler *****************
  6021 ;; Defined at:
  6022 ;;		line 2147 in file "usb_device.c"
  6023 ;; Parameters:    Size  Location     Type
  6024 ;;		None
  6025 ;; Auto vars:     Size  Location     Type
  6026 ;;  p               2    1[COMRAM] PTR struct __BDT
  6027 ;;		 -> BDT(32), NULL(0), 
  6028 ;; Return value:  Size  Location     Type
  6029 ;;                  1    wreg      void 
  6030 ;; Registers used:
  6031 ;;		wreg, fsr2l, fsr2h, status,2, status,0, prodl, prodh
  6032 ;; Tracked objects:
  6033 ;;		On entry : 0/0
  6034 ;;		On exit  : 0/0
  6035 ;;		Unchanged: 0/0
  6036 ;; Data sizes:     COMRAM   BANK0   BANK1 BANK2hh BANK2hl
  6037 ;;      Params:         0       0       0       0       0
  6038 ;;      Locals:         2       0       0       0       0
  6039 ;;      Temps:          1       0       0       0       0
  6040 ;;      Totals:         3       0       0       0       0
  6041 ;;Total ram usage:        3 bytes
  6042 ;; Hardware stack levels used:    1
  6043 ;; This function calls:
  6044 ;;		Nothing
  6045 ;; This function is called by:
  6046 ;;		_USBCheckStdRequest
  6047 ;; This function uses a non-reentrant model
  6048 ;;
  6049                           
  6050                           	psect	text25
  6051  001A60                     __ptext25:
  6052                           	opt stack 0
  6053  001A60                     _USBStdGetStatusHandler:
  6054                           	opt stack 23
  6055                           
  6056                           ;usb_device.c: 2149: CtrlTrfData[0] = 0;
  6057                           
  6058                           ;incstack = 0
  6059  001A60  0E00               	movlw	0
  6060  001A62  0102               	movlb	2	; () banked
  6061  001A64  6F28               	movwf	40,b	;volatile
  6062                           
  6063                           ;usb_device.c: 2150: CtrlTrfData[1] = 0;
  6064  001A66  0E00               	movlw	0
  6065  001A68  0102               	movlb	2	; () banked
  6066  001A6A  6F29               	movwf	41,b	;volatile
  6067                           
  6068                           ;usb_device.c: 2152: switch(SetupPkt.Recipient)
  6069  001A6C  D03B               	goto	i2l3125
  6070  001A6E                     i2l540:
  6071                           
  6072                           ; BSR set to: 2
  6073                           ;usb_device.c: 2160: if(1 == 1)
  6074  001A6E  8E0C               	bsf	_inPipes+3,7,c	;volatile
  6075                           
  6076                           ; BSR set to: 2
  6077                           ;usb_device.c: 2161: {
  6078                           ;usb_device.c: 2162: CtrlTrfData[0]|=0x01;
  6079  001A70  0102               	movlb	2	; () banked
  6080  001A72  8128               	bsf	40,0,b	;volatile
  6081                           
  6082                           ; BSR set to: 2
  6083                           ;usb_device.c: 2163: }
  6084                           ;usb_device.c: 2165: if(RemoteWakeup == 1)
  6085                           
  6086                           ; BSR set to: 2
  6087  001A74  0100               	movlb	0	; () banked
  6088  001A76  0585               	decf	_RemoteWakeup& (0+255),w,b	;volatile
  6089  001A78  A4D8               	btfss	status,2,c
  6090  001A7A  D040               	goto	i2l543
  6091                           
  6092                           ; BSR set to: 0
  6093                           ;usb_device.c: 2166: {
  6094                           ;usb_device.c: 2167: CtrlTrfData[0]|=0x02;
  6095  001A7C  0102               	movlb	2	; () banked
  6096  001A7E  8328               	bsf	40,1,b	;volatile
  6097                           
  6098                           ; BSR set to: 2
  6099                           ;usb_device.c: 2168: }
  6100                           ;usb_device.c: 2169: break;
  6101  001A80  D03D               	goto	i2l543
  6102  001A82                     i2l544:
  6103                           
  6104                           ; BSR set to: 2
  6105                           ;usb_device.c: 2171: inPipes[0].info.bits.busy = 1;
  6106  001A82  8E0C               	bsf	_inPipes+3,7,c	;volatile
  6107                           
  6108                           ;usb_device.c: 2172: break;
  6109  001A84  D03B               	goto	i2l543
  6110  001A86                     i2l545:
  6111                           
  6112                           ; BSR set to: 2
  6113                           ;usb_device.c: 2174: inPipes[0].info.bits.busy = 1;
  6114  001A86  8E0C               	bsf	_inPipes+3,7,c	;volatile
  6115                           
  6116                           ;usb_device.c: 2178: {
  6117                           ;usb_device.c: 2179: BDT_ENTRY *p;
  6118                           ;usb_device.c: 2181: if(SetupPkt.EPDir == 0)
  6119  001A88  0102               	movlb	2	; () banked
  6120  001A8A  BF24               	btfsc	36,7,b	;volatile
  6121  001A8C  D00B               	goto	i2l3115
  6122                           
  6123                           ; BSR set to: 2
  6124                           ;usb_device.c: 2182: {
  6125                           ;usb_device.c: 2183: p = (BDT_ENTRY*)pBDTEntryOut[SetupPkt.EPNum];
  6126  001A8E  0102               	movlb	2	; () banked
  6127  001A90  5124               	movf	36,w,b	;volatile
  6128  001A92  0B0F               	andlw	15
  6129  001A94  6E2B               	movwf	??_USBStdGetStatusHandler& (0+255),c
  6130  001A96  502B               	movf	??_USBStdGetStatusHandler,w,c
  6131  001A98  0D02               	mullw	2
  6132  001A9A  0E78               	movlw	low _pBDTEntryOut
  6133  001A9C  24F3               	addwf	prodl,w,c
  6134  001A9E  6ED9               	movwf	fsr2l,c
  6135  001AA0  0E00               	movlw	high _pBDTEntryOut
  6136  001AA2  D00A               	goto	L4
  6137  001AA4                     i2l3115:
  6138                           
  6139                           ; BSR set to: 2
  6140                           ;usb_device.c: 2185: else
  6141                           ;usb_device.c: 2186: {
  6142                           ;usb_device.c: 2187: p = (BDT_ENTRY*)pBDTEntryIn[SetupPkt.EPNum];
  6143  001AA4  0102               	movlb	2	; () banked
  6144  001AA6  5124               	movf	36,w,b	;volatile
  6145  001AA8  0B0F               	andlw	15
  6146  001AAA  6E2B               	movwf	??_USBStdGetStatusHandler& (0+255),c
  6147  001AAC  502B               	movf	??_USBStdGetStatusHandler,w,c
  6148  001AAE  0D02               	mullw	2
  6149  001AB0  0E15               	movlw	low _pBDTEntryIn
  6150  001AB2  24F3               	addwf	prodl,w,c
  6151  001AB4  6ED9               	movwf	fsr2l,c
  6152  001AB6  0E00               	movlw	high _pBDTEntryIn
  6153  001AB8                     L4:
  6154  001AB8  20F4               	addwfc	prodh,w,c
  6155  001ABA  6EDA               	movwf	fsr2h,c
  6156  001ABC  CFDE F02C          	movff	postinc2,USBStdGetStatusHandler@p
  6157  001AC0  CFDD F02D          	movff	postdec2,USBStdGetStatusHandler@p+1
  6158                           
  6159                           ; BSR set to: 2
  6160                           ;usb_device.c: 2188: }
  6161                           ;usb_device.c: 2190: if((p->STAT.UOWN == 1) && (p->STAT.BSTALL == 1))
  6162                           
  6163                           ; BSR set to: 2
  6164  001AC4  C02C  FFD9         	movff	USBStdGetStatusHandler@p,fsr2l
  6165  001AC8  C02D  FFDA         	movff	USBStdGetStatusHandler@p+1,fsr2h
  6166  001ACC  AEDF               	btfss	indf2,7,c
  6167  001ACE  D016               	goto	i2l543
  6168                           
  6169                           ; BSR set to: 2
  6170  001AD0  C02C  FFD9         	movff	USBStdGetStatusHandler@p,fsr2l
  6171  001AD4  C02D  FFDA         	movff	USBStdGetStatusHandler@p+1,fsr2h
  6172  001AD8  A4DF               	btfss	indf2,2,c
  6173  001ADA  D010               	goto	i2l543
  6174                           
  6175                           ; BSR set to: 2
  6176                           ;usb_device.c: 2191: CtrlTrfData[0]=0x01;
  6177  001ADC  0E01               	movlw	1
  6178  001ADE  0102               	movlb	2	; () banked
  6179  001AE0  6F28               	movwf	40,b	;volatile
  6180                           
  6181                           ; BSR set to: 2
  6182                           ;usb_device.c: 2193: }
  6183                           ;usb_device.c: 2194: }
  6184                           
  6185                           ; BSR set to: 2
  6186                           ;usb_device.c: 2192: break;
  6187  001AE2  D00C               	goto	i2l543
  6188  001AE4                     i2l3125:
  6189                           
  6190                           ; BSR set to: 2
  6191  001AE4  0102               	movlb	2	; () banked
  6192  001AE6  5120               	movf	32,w,b	;volatile
  6193  001AE8  0B1F               	andlw	31
  6194                           
  6195                           ; Switch size 1, requested type "space"
  6196                           ; Number of cases is 3, Range of values is 0 to 2
  6197                           ; switch strategies available:
  6198                           ; Name         Instructions Cycles
  6199                           ; simple_byte           10     6 (average)
  6200                           ;	Chosen strategy is simple_byte
  6201  001AEA  0A00               	xorlw	0	; case 0
  6202  001AEC  B4D8               	btfsc	status,2,c
  6203  001AEE  D7BF               	goto	i2l540
  6204  001AF0  0A01               	xorlw	1	; case 1
  6205  001AF2  B4D8               	btfsc	status,2,c
  6206  001AF4  D7C6               	goto	i2l544
  6207  001AF6  0A03               	xorlw	3	; case 2
  6208  001AF8  B4D8               	btfsc	status,2,c
  6209  001AFA  D7C5               	goto	i2l545
  6210  001AFC                     i2l543:
  6211                           
  6212                           ;usb_device.c: 2196: if(inPipes[0].info.bits.busy == 1)
  6213  001AFC  AE0C               	btfss	_inPipes+3,7,c	;volatile
  6214  001AFE  0012               	return	
  6215                           
  6216                           ;usb_device.c: 2197: {
  6217                           ;usb_device.c: 2198: inPipes[0].pSrc.bRam = (uint8_t*)&CtrlTrfData;
  6218  001B00  0E28               	movlw	40
  6219  001B02  6E09               	movwf	_inPipes,c	;volatile
  6220  001B04  0E02               	movlw	2
  6221  001B06  6E0A               	movwf	_inPipes+1,c	;volatile
  6222                           
  6223                           ;usb_device.c: 2199: inPipes[0].info.bits.ctrl_trf_mem = 0x01;
  6224  001B08  800C               	bsf	_inPipes+3,0,c	;volatile
  6225                           
  6226                           ;usb_device.c: 2200: inPipes[0].wCount.v[0] = 2;
  6227  001B0A  0E02               	movlw	2
  6228  001B0C  6E0D               	movwf	_inPipes+4,c	;volatile
  6229  001B0E  0012               	return	
  6230  001B10                     __end_of_USBStdGetStatusHandler:
  6231                           	opt stack 0
  6232                           pclatu	equ	0xFFB
  6233                           pclath	equ	0xFFA
  6234                           tblptru	equ	0xFF8
  6235                           tblptrh	equ	0xFF7
  6236                           tblptrl	equ	0xFF6
  6237                           tablat	equ	0xFF5
  6238                           prodh	equ	0xFF4
  6239                           prodl	equ	0xFF3
  6240                           intcon	equ	0xFF2
  6241                           postinc0	equ	0xFEE
  6242                           fsr0h	equ	0xFEA
  6243                           fsr0l	equ	0xFE9
  6244                           wreg	equ	0xFE8
  6245                           indf1	equ	0xFE7
  6246                           postinc1	equ	0xFE6
  6247                           postdec1	equ	0xFE5
  6248                           plusw1	equ	0xFE3
  6249                           fsr1h	equ	0xFE2
  6250                           fsr1l	equ	0xFE1
  6251                           indf2	equ	0xFDF
  6252                           postinc2	equ	0xFDE
  6253                           postdec2	equ	0xFDD
  6254                           plusw2	equ	0xFDB
  6255                           fsr2h	equ	0xFDA
  6256                           fsr2l	equ	0xFD9
  6257                           status	equ	0xFD8
  6258                           
  6259 ;; *************** function _USBStdGetDscHandler *****************
  6260 ;; Defined at:
  6261 ;;		line 2061 in file "usb_device.c"
  6262 ;; Parameters:    Size  Location     Type
  6263 ;;		None
  6264 ;; Auto vars:     Size  Location     Type
  6265 ;;		None
  6266 ;; Return value:  Size  Location     Type
  6267 ;;                  1    wreg      void 
  6268 ;; Registers used:
  6269 ;;		wreg, fsr1l, fsr1h, status,2, status,0, tblptrl, tblptrh, tblptru, prodl, prodh
  6270 ;; Tracked objects:
  6271 ;;		On entry : 0/0
  6272 ;;		On exit  : 0/0
  6273 ;;		Unchanged: 0/0
  6274 ;; Data sizes:     COMRAM   BANK0   BANK1 BANK2hh BANK2hl
  6275 ;;      Params:         0       0       0       0       0
  6276 ;;      Locals:         0       0       0       0       0
  6277 ;;      Temps:          2       0       0       0       0
  6278 ;;      Totals:         2       0       0       0       0
  6279 ;;Total ram usage:        2 bytes
  6280 ;; Hardware stack levels used:    1
  6281 ;; This function calls:
  6282 ;;		Nothing
  6283 ;; This function is called by:
  6284 ;;		_USBCheckStdRequest
  6285 ;; This function uses a non-reentrant model
  6286 ;;
  6287                           
  6288                           	psect	text26
  6289  0010A0                     __ptext26:
  6290                           	opt stack 0
  6291  0010A0                     _USBStdGetDscHandler:
  6292                           	opt stack 23
  6293                           
  6294                           ;usb_device.c: 2063: if(SetupPkt.bmRequestType == 0x80)
  6295                           
  6296                           ;incstack = 0
  6297  0010A0  0E80               	movlw	128
  6298  0010A2  0102               	movlb	2	; () banked
  6299  0010A4  1920               	xorwf	32,w,b	;volatile
  6300  0010A6  A4D8               	btfss	status,2,c
  6301  0010A8  0012               	return	
  6302                           
  6303                           ; BSR set to: 2
  6304                           ;usb_device.c: 2064: {
  6305                           ;usb_device.c: 2065: inPipes[0].info.Val = 0x00 | 0x80 | 0x40;
  6306  0010AA  0EC0               	movlw	192
  6307  0010AC  6E0C               	movwf	_inPipes+3,c	;volatile
  6308                           
  6309                           ;usb_device.c: 2067: switch(SetupPkt.bDescriptorType)
  6310  0010AE  D07C               	goto	i2l3103
  6311  0010B0                     i2l3077:
  6312                           
  6313                           ; BSR set to: 2
  6314                           ;usb_device.c: 2071: inPipes[0].pSrc.bRom = (const uint8_t*)&device_dsc;
  6315  0010B0  0EBD               	movlw	low _device_dsc
  6316  0010B2  6E09               	movwf	_inPipes,c	;volatile
  6317  0010B4  0E03               	movlw	high _device_dsc
  6318  0010B6  6E0A               	movwf	_inPipes+1,c	;volatile
  6319                           
  6320                           ; BSR set to: 2
  6321                           ;usb_device.c: 2075: inPipes[0].wCount.Val = sizeof(device_dsc);
  6322  0010B8  0E00               	movlw	0
  6323  0010BA  6E0E               	movwf	_inPipes+5,c	;volatile
  6324  0010BC  0E12               	movlw	18
  6325  0010BE  6E0D               	movwf	_inPipes+4,c	;volatile
  6326                           
  6327                           ;usb_device.c: 2076: break;
  6328  0010C0  0012               	return	
  6329  0010C2                     i2l3081:
  6330                           
  6331                           ; BSR set to: 2
  6332                           ;usb_device.c: 2081: if(SetupPkt.bDscIndex < 1)
  6333  0010C2  0102               	movlb	2	; () banked
  6334  0010C4  5122               	movf	34,w,b	;volatile
  6335  0010C6  A4D8               	btfss	status,2,c
  6336  0010C8  D03E               	goto	i2l3089
  6337                           
  6338                           ; BSR set to: 2
  6339                           ;usb_device.c: 2082: {
  6340                           ;usb_device.c: 2084: inPipes[0].pSrc.bRom = *(USB_CD_Ptr+SetupPkt.bDscIndex);
  6341  0010CA  0102               	movlb	2	; () banked
  6342  0010CC  5122               	movf	34,w,b	;volatile
  6343  0010CE  0D02               	mullw	2
  6344  0010D0  0E07               	movlw	low _USB_CD_Ptr
  6345  0010D2  24F3               	addwf	prodl,w,c
  6346  0010D4  6EF6               	movwf	tblptrl,c
  6347  0010D6  0E03               	movlw	high _USB_CD_Ptr
  6348  0010D8  20F4               	addwfc	prodh,w,c
  6349  0010DA  6EF7               	movwf	tblptrh,c
  6350  0010DC                     	if	0	;There are less than 3 active tblptr bytes
  6351  0010DC                     	endif
  6352  0010DC  0009               	tblrd		*+
  6353  0010DE  CFF5 F009          	movff	tablat,_inPipes	;volatile
  6354  0010E2  000A               	tblrd		*-
  6355  0010E4  CFF5 F00A          	movff	tablat,_inPipes+1	;volatile
  6356                           
  6357                           ; BSR set to: 2
  6358                           ;usb_device.c: 2092: inPipes[0].wCount.byte.LB = *(inPipes[0].pSrc.bRom+2);
  6359  0010E8  0E02               	movlw	2
  6360  0010EA  2409               	addwf	_inPipes,w,c	;volatile
  6361  0010EC  6E2B               	movwf	??_USBStdGetDscHandler& (0+255),c
  6362  0010EE  0E00               	movlw	0
  6363  0010F0  200A               	addwfc	_inPipes+1,w,c	;volatile
  6364  0010F2  6E2C               	movwf	(??_USBStdGetDscHandler+1)& (0+255),c
  6365  0010F4  C02B  FFF6         	movff	??_USBStdGetDscHandler,tblptrl
  6366  0010F8  C02C  FFF7         	movff	??_USBStdGetDscHandler+1,tblptrh
  6367  0010FC  6AF8               	clrf	tblptru,c
  6368  0010FE  0E02               	movlw	(high __ramtop+-1)
  6369  001100  64F7               	cpfsgt	tblptrh,c
  6370  001102  D003               	bra	i2u250_47
  6371  001104  0008               	tblrd		*
  6372  001106  50F5               	movf	tablat,w,c
  6373  001108  D005               	bra	i2u250_40
  6374  00110A                     i2u250_47:
  6375  00110A  CFF6 FFE1          	movff	tblptrl,fsr1l
  6376  00110E  CFF7 FFE2          	movff	tblptrh,fsr1h
  6377  001112  50E7               	movf	indf1,w,c
  6378  001114                     i2u250_40:
  6379  001114  6E0D               	movwf	_inPipes+4,c	;volatile
  6380                           
  6381                           ;usb_device.c: 2093: inPipes[0].wCount.byte.HB = *(inPipes[0].pSrc.bRom+3);
  6382  001116  0E03               	movlw	3
  6383  001118  2409               	addwf	_inPipes,w,c	;volatile
  6384  00111A  6E2B               	movwf	??_USBStdGetDscHandler& (0+255),c
  6385  00111C  0E00               	movlw	0
  6386  00111E  200A               	addwfc	_inPipes+1,w,c	;volatile
  6387  001120  6E2C               	movwf	(??_USBStdGetDscHandler+1)& (0+255),c
  6388  001122  C02B  FFF6         	movff	??_USBStdGetDscHandler,tblptrl
  6389  001126  C02C  FFF7         	movff	??_USBStdGetDscHandler+1,tblptrh
  6390  00112A  6AF8               	clrf	tblptru,c
  6391  00112C  0E02               	movlw	(high __ramtop+-1)
  6392  00112E  64F7               	cpfsgt	tblptrh,c
  6393  001130  D003               	bra	i2u251_47
  6394  001132  0008               	tblrd		*
  6395  001134  50F5               	movf	tablat,w,c
  6396  001136  D005               	bra	i2u251_40
  6397  001138                     i2u251_47:
  6398  001138  CFF6 FFE1          	movff	tblptrl,fsr1l
  6399  00113C  CFF7 FFE2          	movff	tblptrh,fsr1h
  6400  001140  50E7               	movf	indf1,w,c
  6401  001142                     i2u251_40:
  6402  001142  6E0E               	movwf	_inPipes+5,c	;volatile
  6403                           
  6404                           ;usb_device.c: 2094: }
  6405  001144  0012               	return	
  6406  001146                     i2l3089:
  6407                           
  6408                           ;usb_device.c: 2095: else
  6409                           ;usb_device.c: 2096: {
  6410                           ;usb_device.c: 2097: inPipes[0].info.Val = 0;
  6411  001146  0E00               	movlw	0
  6412  001148  6E0C               	movwf	_inPipes+3,c	;volatile
  6413                           
  6414                           ;usb_device.c: 2098: }
  6415                           ;usb_device.c: 2099: break;
  6416  00114A  0012               	return	
  6417  00114C                     i2l3091:
  6418                           
  6419                           ;usb_device.c: 2104: if(SetupPkt.bDscIndex<3)
  6420  00114C  0E03               	movlw	3
  6421  00114E  0102               	movlb	2	; () banked
  6422  001150  6122               	cpfslt	34,b	;volatile
  6423  001152  D024               	goto	i2l3097
  6424                           
  6425                           ; BSR set to: 2
  6426                           ;usb_device.c: 2105: {
  6427                           ;usb_device.c: 2107: inPipes[0].pSrc.bRom = *(USB_SD_Ptr+SetupPkt.bDscIndex);
  6428  001154  0102               	movlb	2	; () banked
  6429  001156  5122               	movf	34,w,b	;volatile
  6430  001158  0D02               	mullw	2
  6431  00115A  0E01               	movlw	low _USB_SD_Ptr
  6432  00115C  24F3               	addwf	prodl,w,c
  6433  00115E  6EF6               	movwf	tblptrl,c
  6434  001160  0E03               	movlw	high _USB_SD_Ptr
  6435  001162  20F4               	addwfc	prodh,w,c
  6436  001164  6EF7               	movwf	tblptrh,c
  6437  001166                     	if	0	;There are less than 3 active tblptr bytes
  6438  001166                     	endif
  6439  001166  0009               	tblrd		*+
  6440  001168  CFF5 F009          	movff	tablat,_inPipes	;volatile
  6441  00116C  000A               	tblrd		*-
  6442  00116E  CFF5 F00A          	movff	tablat,_inPipes+1	;volatile
  6443                           
  6444                           ; BSR set to: 2
  6445                           ;usb_device.c: 2109: inPipes[0].wCount.Val = *inPipes[0].pSrc.bRom;
  6446  001172  C009  FFF6         	movff	_inPipes,tblptrl	;volatile
  6447  001176  C00A  FFF7         	movff	_inPipes+1,tblptrh	;volatile
  6448  00117A  6AF8               	clrf	tblptru,c
  6449  00117C  0E02               	movlw	(high __ramtop+-1)
  6450  00117E  64F7               	cpfsgt	tblptrh,c
  6451  001180  D003               	bra	i2u253_47
  6452  001182  0008               	tblrd		*
  6453  001184  50F5               	movf	tablat,w,c
  6454  001186  D005               	bra	i2u253_40
  6455  001188                     i2u253_47:
  6456  001188  CFF6 FFE1          	movff	tblptrl,fsr1l
  6457  00118C  CFF7 FFE2          	movff	tblptrh,fsr1h
  6458  001190  50E7               	movf	indf1,w,c
  6459  001192                     i2u253_40:
  6460  001192  6E2B               	movwf	??_USBStdGetDscHandler& (0+255),c
  6461  001194  502B               	movf	??_USBStdGetDscHandler,w,c
  6462  001196  6E0D               	movwf	_inPipes+4,c	;volatile
  6463  001198  6A0E               	clrf	_inPipes+5,c	;volatile
  6464                           
  6465                           ;usb_device.c: 2110: }
  6466  00119A  0012               	return	
  6467  00119C                     i2l3097:
  6468                           
  6469                           ;usb_device.c: 2120: else
  6470                           ;usb_device.c: 2121: {
  6471                           ;usb_device.c: 2122: inPipes[0].info.Val = 0;
  6472  00119C  0E00               	movlw	0
  6473  00119E  6E0C               	movwf	_inPipes+3,c	;volatile
  6474                           
  6475                           ;usb_device.c: 2123: }
  6476                           ;usb_device.c: 2124: break;
  6477  0011A0  0012               	return	
  6478  0011A2                     i2l3099:
  6479                           
  6480                           ;usb_device.c: 2126: inPipes[0].info.Val = 0;
  6481  0011A2  0E00               	movlw	0
  6482  0011A4  6E0C               	movwf	_inPipes+3,c	;volatile
  6483                           
  6484                           ;usb_device.c: 2128: }
  6485                           
  6486                           ;usb_device.c: 2127: break;
  6487  0011A6  0012               	return	
  6488  0011A8                     i2l3103:
  6489  0011A8  0102               	movlb	2	; () banked
  6490  0011AA  5123               	movf	35,w,b	;volatile
  6491                           
  6492                           ; Switch size 1, requested type "space"
  6493                           ; Number of cases is 3, Range of values is 1 to 3
  6494                           ; switch strategies available:
  6495                           ; Name         Instructions Cycles
  6496                           ; simple_byte           10     6 (average)
  6497                           ;	Chosen strategy is simple_byte
  6498  0011AC  0A01               	xorlw	1	; case 1
  6499  0011AE  B4D8               	btfsc	status,2,c
  6500  0011B0  D77F               	goto	i2l3077
  6501  0011B2  0A03               	xorlw	3	; case 2
  6502  0011B4  B4D8               	btfsc	status,2,c
  6503  0011B6  D785               	goto	i2l3081
  6504  0011B8  0A01               	xorlw	1	; case 3
  6505  0011BA  B4D8               	btfsc	status,2,c
  6506  0011BC  D7C7               	goto	i2l3091
  6507  0011BE  D7F1               	goto	i2l3099
  6508  0011C0                     __end_of_USBStdGetDscHandler:
  6509                           	opt stack 0
  6510                           pclatu	equ	0xFFB
  6511                           pclath	equ	0xFFA
  6512                           tblptru	equ	0xFF8
  6513                           tblptrh	equ	0xFF7
  6514                           tblptrl	equ	0xFF6
  6515                           tablat	equ	0xFF5
  6516                           prodh	equ	0xFF4
  6517                           prodl	equ	0xFF3
  6518                           intcon	equ	0xFF2
  6519                           postinc0	equ	0xFEE
  6520                           fsr0h	equ	0xFEA
  6521                           fsr0l	equ	0xFE9
  6522                           wreg	equ	0xFE8
  6523                           indf1	equ	0xFE7
  6524                           postinc1	equ	0xFE6
  6525                           postdec1	equ	0xFE5
  6526                           plusw1	equ	0xFE3
  6527                           fsr1h	equ	0xFE2
  6528                           fsr1l	equ	0xFE1
  6529                           indf2	equ	0xFDF
  6530                           postinc2	equ	0xFDE
  6531                           postdec2	equ	0xFDD
  6532                           plusw2	equ	0xFDB
  6533                           fsr2h	equ	0xFDA
  6534                           fsr2l	equ	0xFD9
  6535                           status	equ	0xFD8
  6536                           
  6537 ;; *************** function _USBStdFeatureReqHandler *****************
  6538 ;; Defined at:
  6539 ;;		line 2771 in file "usb_device.c"
  6540 ;; Parameters:    Size  Location     Type
  6541 ;;		None
  6542 ;; Auto vars:     Size  Location     Type
  6543 ;;  p               2   24[COMRAM] PTR struct __BDT
  6544 ;;		 -> BDT(32), NULL(0), 
  6545 ;;  pUEP            2   21[COMRAM] PTR unsigned char 
  6546 ;;		 -> UEP0(1), 
  6547 ;;  current_ep_d    1   23[COMRAM] struct .
  6548 ;; Return value:  Size  Location     Type
  6549 ;;                  1    wreg      void 
  6550 ;; Registers used:
  6551 ;;		wreg, fsr2l, fsr2h, status,2, status,0, prodl, prodh, cstack
  6552 ;; Tracked objects:
  6553 ;;		On entry : 0/0
  6554 ;;		On exit  : 0/0
  6555 ;;		Unchanged: 0/0
  6556 ;; Data sizes:     COMRAM   BANK0   BANK1 BANK2hh BANK2hl
  6557 ;;      Params:         0       0       0       0       0
  6558 ;;      Locals:         5       0       0       0       0
  6559 ;;      Temps:          1       0       0       0       0
  6560 ;;      Totals:         6       0       0       0       0
  6561 ;;Total ram usage:        6 bytes
  6562 ;; Hardware stack levels used:    1
  6563 ;; Hardware stack levels required when called:    4
  6564 ;; This function calls:
  6565 ;;		_USER_USB_CALLBACK_EVENT_HANDLER
  6566 ;; This function is called by:
  6567 ;;		_USBCheckStdRequest
  6568 ;; This function uses a non-reentrant model
  6569 ;;
  6570                           
  6571                           	psect	text27
  6572  0008F2                     __ptext27:
  6573                           	opt stack 0
  6574  0008F2                     _USBStdFeatureReqHandler:
  6575                           	opt stack 19
  6576                           
  6577                           ;usb_device.c: 2773: BDT_ENTRY *p;
  6578                           ;usb_device.c: 2774: EP_STATUS current_ep_data;
  6579                           ;usb_device.c: 2778: unsigned char* pUEP;
  6580                           ;usb_device.c: 2816: if((SetupPkt.bFeature == 1)&&
  6581                           ;usb_device.c: 2817: (SetupPkt.Recipient == (0x00)))
  6582                           
  6583                           ;incstack = 0
  6584  0008F2  0102               	movlb	2	; () banked
  6585  0008F4  0522               	decf	34,w,b	;volatile
  6586  0008F6  A4D8               	btfss	status,2,c
  6587  0008F8  D011               	goto	i2l617
  6588                           
  6589                           ; BSR set to: 2
  6590  0008FA  0102               	movlb	2	; () banked
  6591  0008FC  5120               	movf	32,w,b	;volatile
  6592  0008FE  0B1F               	andlw	31
  6593  000900  0900               	iorlw	0
  6594  000902  A4D8               	btfss	status,2,c
  6595  000904  D00B               	goto	i2l617
  6596                           
  6597                           ; BSR set to: 2
  6598                           ;usb_device.c: 2818: {
  6599                           ;usb_device.c: 2819: inPipes[0].info.bits.busy = 1;
  6600  000906  8E0C               	bsf	_inPipes+3,7,c	;volatile
  6601                           
  6602                           ; BSR set to: 2
  6603                           ;usb_device.c: 2820: if(SetupPkt.bRequest == 3)
  6604  000908  0E03               	movlw	3
  6605  00090A  0102               	movlb	2	; () banked
  6606  00090C  1921               	xorwf	33,w,b	;volatile
  6607  00090E  A4D8               	btfss	status,2,c
  6608  000910  D002               	goto	i2l3143
  6609                           
  6610                           ; BSR set to: 2
  6611                           ;usb_device.c: 2821: RemoteWakeup = 1;
  6612  000912  0E01               	movlw	1
  6613  000914  D001               	goto	L5
  6614  000916                     i2l3143:
  6615                           
  6616                           ;usb_device.c: 2822: else
  6617                           ;usb_device.c: 2823: RemoteWakeup = 0;
  6618  000916  0E00               	movlw	0
  6619  000918                     L5:
  6620  000918  0100               	movlb	0	; () banked
  6621  00091A  6F85               	movwf	_RemoteWakeup& (0+255),b	;volatile
  6622  00091C                     i2l617:
  6623                           
  6624                           ;usb_device.c: 2824: }
  6625                           ;usb_device.c: 2827: if((SetupPkt.bFeature == 0)&&
  6626                           ;usb_device.c: 2828: (SetupPkt.Recipient == (0x02))&&
  6627                           ;usb_device.c: 2829: (SetupPkt.EPNum != 0) && (SetupPkt.EPNum <= 1)&&
  6628                           ;usb_device.c: 2830: (USBDeviceState == CONFIGURED_STATE))
  6629  00091C  0102               	movlb	2	; () banked
  6630  00091E  5122               	movf	34,w,b	;volatile
  6631  000920  A4D8               	btfss	status,2,c
  6632  000922  0012               	return	
  6633                           
  6634                           ; BSR set to: 2
  6635  000924  0102               	movlb	2	; () banked
  6636  000926  5120               	movf	32,w,b	;volatile
  6637  000928  0B1F               	andlw	31
  6638  00092A  0A02               	xorlw	2
  6639  00092C  A4D8               	btfss	status,2,c
  6640  00092E  0012               	return	
  6641                           
  6642                           ; BSR set to: 2
  6643  000930  0102               	movlb	2	; () banked
  6644  000932  5124               	movf	36,w,b	;volatile
  6645  000934  0B0F               	andlw	15
  6646  000936  0900               	iorlw	0
  6647  000938  B4D8               	btfsc	status,2,c
  6648  00093A  0012               	return	
  6649                           
  6650                           ; BSR set to: 2
  6651  00093C  0102               	movlb	2	; () banked
  6652  00093E  5124               	movf	36,w,b	;volatile
  6653  000940  0B0F               	andlw	15
  6654  000942  6E3F               	movwf	??_USBStdFeatureReqHandler& (0+255),c
  6655  000944  0E02               	movlw	2
  6656  000946  603F               	cpfslt	??_USBStdFeatureReqHandler,c
  6657  000948  0012               	return	
  6658                           
  6659                           ; BSR set to: 2
  6660  00094A  0E20               	movlw	32
  6661  00094C  1824               	xorwf	_USBDeviceState,w,c	;volatile
  6662  00094E  A4D8               	btfss	status,2,c
  6663  000950  0012               	return	
  6664                           
  6665                           ; BSR set to: 2
  6666                           ;usb_device.c: 2831: {
  6667                           ;usb_device.c: 2834: inPipes[0].info.bits.busy = 1;
  6668  000952  8E0C               	bsf	_inPipes+3,7,c	;volatile
  6669                           
  6670                           ;usb_device.c: 2837: if(SetupPkt.EPDir == 0)
  6671  000954  0102               	movlb	2	; () banked
  6672  000956  BF24               	btfsc	36,7,b	;volatile
  6673  000958  D01B               	goto	i2l3157
  6674                           
  6675                           ; BSR set to: 2
  6676                           ;usb_device.c: 2838: {
  6677                           ;usb_device.c: 2839: p = (BDT_ENTRY*)pBDTEntryOut[SetupPkt.EPNum];
  6678  00095A  0102               	movlb	2	; () banked
  6679  00095C  5124               	movf	36,w,b	;volatile
  6680  00095E  0B0F               	andlw	15
  6681  000960  6E3F               	movwf	??_USBStdFeatureReqHandler& (0+255),c
  6682  000962  503F               	movf	??_USBStdFeatureReqHandler,w,c
  6683  000964  0D02               	mullw	2
  6684  000966  0E78               	movlw	low _pBDTEntryOut
  6685  000968  24F3               	addwf	prodl,w,c
  6686  00096A  6ED9               	movwf	fsr2l,c
  6687  00096C  0E00               	movlw	high _pBDTEntryOut
  6688  00096E  20F4               	addwfc	prodh,w,c
  6689  000970  6EDA               	movwf	fsr2h,c
  6690  000972  CFDE F043          	movff	postinc2,USBStdFeatureReqHandler@p
  6691  000976  CFDD F044          	movff	postdec2,USBStdFeatureReqHandler@p+1
  6692                           
  6693                           ;usb_device.c: 2840: current_ep_data.Val = ep_data_out[SetupPkt.EPNum].Val;
  6694  00097A  0102               	movlb	2	; () banked
  6695  00097C  5124               	movf	36,w,b	;volatile
  6696  00097E  0B0F               	andlw	15
  6697  000980  6E3F               	movwf	??_USBStdFeatureReqHandler& (0+255),c
  6698  000982  503F               	movf	??_USBStdFeatureReqHandler,w,c
  6699  000984  0D01               	mullw	1
  6700  000986  0E1D               	movlw	low _ep_data_out
  6701  000988  24F3               	addwf	prodl,w,c
  6702  00098A  6ED9               	movwf	fsr2l,c
  6703  00098C  0E00               	movlw	high _ep_data_out
  6704  00098E  D01A               	goto	L6
  6705  000990                     i2l3157:
  6706                           
  6707                           ; BSR set to: 2
  6708                           ;usb_device.c: 2842: else
  6709                           ;usb_device.c: 2843: {
  6710                           ;usb_device.c: 2844: p = (BDT_ENTRY*)pBDTEntryIn[SetupPkt.EPNum];
  6711  000990  0102               	movlb	2	; () banked
  6712  000992  5124               	movf	36,w,b	;volatile
  6713  000994  0B0F               	andlw	15
  6714  000996  6E3F               	movwf	??_USBStdFeatureReqHandler& (0+255),c
  6715  000998  503F               	movf	??_USBStdFeatureReqHandler,w,c
  6716  00099A  0D02               	mullw	2
  6717  00099C  0E15               	movlw	low _pBDTEntryIn
  6718  00099E  24F3               	addwf	prodl,w,c
  6719  0009A0  6ED9               	movwf	fsr2l,c
  6720  0009A2  0E00               	movlw	high _pBDTEntryIn
  6721  0009A4  20F4               	addwfc	prodh,w,c
  6722  0009A6  6EDA               	movwf	fsr2h,c
  6723  0009A8  CFDE F043          	movff	postinc2,USBStdFeatureReqHandler@p
  6724  0009AC  CFDD F044          	movff	postdec2,USBStdFeatureReqHandler@p+1
  6725                           
  6726                           ;usb_device.c: 2845: current_ep_data.Val = ep_data_in[SetupPkt.EPNum].Val;
  6727  0009B0  0102               	movlb	2	; () banked
  6728  0009B2  5124               	movf	36,w,b	;volatile
  6729  0009B4  0B0F               	andlw	15
  6730  0009B6  6E3F               	movwf	??_USBStdFeatureReqHandler& (0+255),c
  6731  0009B8  503F               	movf	??_USBStdFeatureReqHandler,w,c
  6732  0009BA  0D01               	mullw	1
  6733  0009BC  0E1B               	movlw	low _ep_data_in
  6734  0009BE  24F3               	addwf	prodl,w,c
  6735  0009C0  6ED9               	movwf	fsr2l,c
  6736  0009C2  0E00               	movlw	high _ep_data_in
  6737  0009C4                     L6:
  6738  0009C4  20F4               	addwfc	prodh,w,c
  6739  0009C6  6EDA               	movwf	fsr2h,c
  6740  0009C8  50DF               	movf	indf2,w,c
  6741  0009CA  6E42               	movwf	USBStdFeatureReqHandler@current_ep_data,c
  6742                           
  6743                           ; BSR set to: 2
  6744                           ;usb_device.c: 2846: }
  6745                           ;usb_device.c: 2852: if(current_ep_data.bits.ping_pong_state == 0)
  6746                           
  6747                           ; BSR set to: 2
  6748  0009CC  B042               	btfsc	USBStdFeatureReqHandler@current_ep_data,0,c
  6749  0009CE  D002               	goto	i2l3163
  6750                           
  6751                           ; BSR set to: 2
  6752                           ;usb_device.c: 2853: {
  6753                           ;usb_device.c: 2854: {((uint8_t_VAL*)&p)->Val &= ~0x0004;};
  6754  0009D0  9443               	bcf	USBStdFeatureReqHandler@p,2,c
  6755                           
  6756                           ;usb_device.c: 2855: }
  6757  0009D2  D001               	goto	i2l3165
  6758  0009D4                     i2l3163:
  6759                           
  6760                           ; BSR set to: 2
  6761                           ;usb_device.c: 2856: else
  6762                           ;usb_device.c: 2857: {
  6763                           ;usb_device.c: 2858: {((uint8_t_VAL*)&p)->Val |= 0x0004;};
  6764  0009D4  8443               	bsf	USBStdFeatureReqHandler@p,2,c
  6765  0009D6                     i2l3165:
  6766                           
  6767                           ; BSR set to: 2
  6768                           ;usb_device.c: 2859: }
  6769                           ;usb_device.c: 2864: if(SetupPkt.EPDir == 0)
  6770  0009D6  0102               	movlb	2	; () banked
  6771  0009D8  BF24               	btfsc	36,7,b	;volatile
  6772  0009DA  D00B               	goto	i2l3169
  6773                           
  6774                           ; BSR set to: 2
  6775                           ;usb_device.c: 2865: {
  6776                           ;usb_device.c: 2866: pBDTEntryOut[SetupPkt.EPNum] = (volatile BDT_ENTRY *)p;
  6777  0009DC  0102               	movlb	2	; () banked
  6778  0009DE  5124               	movf	36,w,b	;volatile
  6779  0009E0  0B0F               	andlw	15
  6780  0009E2  6E3F               	movwf	??_USBStdFeatureReqHandler& (0+255),c
  6781  0009E4  503F               	movf	??_USBStdFeatureReqHandler,w,c
  6782  0009E6  0D02               	mullw	2
  6783  0009E8  0E78               	movlw	low _pBDTEntryOut
  6784  0009EA  24F3               	addwf	prodl,w,c
  6785  0009EC  6ED9               	movwf	fsr2l,c
  6786  0009EE  0E00               	movlw	high _pBDTEntryOut
  6787  0009F0  D00A               	goto	L7
  6788  0009F2                     i2l3169:
  6789                           
  6790                           ; BSR set to: 2
  6791                           ;usb_device.c: 2868: else
  6792                           ;usb_device.c: 2869: {
  6793                           ;usb_device.c: 2870: pBDTEntryIn[SetupPkt.EPNum] = (volatile BDT_ENTRY *)p;
  6794  0009F2  0102               	movlb	2	; () banked
  6795  0009F4  5124               	movf	36,w,b	;volatile
  6796  0009F6  0B0F               	andlw	15
  6797  0009F8  6E3F               	movwf	??_USBStdFeatureReqHandler& (0+255),c
  6798  0009FA  503F               	movf	??_USBStdFeatureReqHandler,w,c
  6799  0009FC  0D02               	mullw	2
  6800  0009FE  0E15               	movlw	low _pBDTEntryIn
  6801  000A00  24F3               	addwf	prodl,w,c
  6802  000A02  6ED9               	movwf	fsr2l,c
  6803  000A04  0E00               	movlw	high _pBDTEntryIn
  6804  000A06                     L7:
  6805  000A06  20F4               	addwfc	prodh,w,c
  6806  000A08  6EDA               	movwf	fsr2h,c
  6807  000A0A  C043  FFDE         	movff	USBStdFeatureReqHandler@p,postinc2
  6808  000A0E  C044  FFDD         	movff	USBStdFeatureReqHandler@p+1,postdec2
  6809                           
  6810                           ; BSR set to: 2
  6811                           ;usb_device.c: 2871: }
  6812                           ;usb_device.c: 2874: if(SetupPkt.bRequest == 3)
  6813                           
  6814                           ; BSR set to: 2
  6815  000A12  0E03               	movlw	3
  6816  000A14  0102               	movlb	2	; () banked
  6817  000A16  1921               	xorwf	33,w,b	;volatile
  6818  000A18  A4D8               	btfss	status,2,c
  6819  000A1A  D02E               	goto	i2l3185
  6820                           
  6821                           ; BSR set to: 2
  6822                           ;usb_device.c: 2875: {
  6823                           ;usb_device.c: 2876: if(p->STAT.UOWN == 1)
  6824  000A1C  C043  FFD9         	movff	USBStdFeatureReqHandler@p,fsr2l
  6825  000A20  C044  FFDA         	movff	USBStdFeatureReqHandler@p+1,fsr2h
  6826  000A24  AEDF               	btfss	indf2,7,c
  6827  000A26  D01B               	goto	i2l3181
  6828                           
  6829                           ; BSR set to: 2
  6830                           ;usb_device.c: 2877: {
  6831                           ;usb_device.c: 2880: if(SetupPkt.EPDir == 0)
  6832  000A28  0102               	movlb	2	; () banked
  6833  000A2A  BF24               	btfsc	36,7,b	;volatile
  6834  000A2C  D00B               	goto	i2l3179
  6835                           
  6836                           ; BSR set to: 2
  6837                           ;usb_device.c: 2881: {
  6838                           ;usb_device.c: 2882: ep_data_out[SetupPkt.EPNum].bits.transfer_terminated = 1;
  6839  000A2E  0102               	movlb	2	; () banked
  6840  000A30  5124               	movf	36,w,b	;volatile
  6841  000A32  0B0F               	andlw	15
  6842  000A34  6E3F               	movwf	??_USBStdFeatureReqHandler& (0+255),c
  6843  000A36  503F               	movf	??_USBStdFeatureReqHandler,w,c
  6844  000A38  0D01               	mullw	1
  6845  000A3A  0E1D               	movlw	low _ep_data_out
  6846  000A3C  24F3               	addwf	prodl,w,c
  6847  000A3E  6ED9               	movwf	fsr2l,c
  6848  000A40  0E00               	movlw	high _ep_data_out
  6849  000A42  D00A               	goto	L8
  6850  000A44                     i2l3179:
  6851                           
  6852                           ; BSR set to: 2
  6853                           ;usb_device.c: 2884: else
  6854                           ;usb_device.c: 2885: {
  6855                           ;usb_device.c: 2886: ep_data_in[SetupPkt.EPNum].bits.transfer_terminated = 1;
  6856  000A44  0102               	movlb	2	; () banked
  6857  000A46  5124               	movf	36,w,b	;volatile
  6858  000A48  0B0F               	andlw	15
  6859  000A4A  6E3F               	movwf	??_USBStdFeatureReqHandler& (0+255),c
  6860  000A4C  503F               	movf	??_USBStdFeatureReqHandler,w,c
  6861  000A4E  0D01               	mullw	1
  6862  000A50  0E1B               	movlw	low _ep_data_in
  6863  000A52  24F3               	addwf	prodl,w,c
  6864  000A54  6ED9               	movwf	fsr2l,c
  6865  000A56  0E00               	movlw	high _ep_data_in
  6866  000A58                     L8:
  6867  000A58  20F4               	addwfc	prodh,w,c
  6868  000A5A  6EDA               	movwf	fsr2h,c
  6869  000A5C  82DF               	bsf	indf2,1,c
  6870  000A5E                     i2l3181:
  6871                           
  6872                           ; BSR set to: 2
  6873                           ;usb_device.c: 2887: }
  6874                           ;usb_device.c: 2888: }
  6875                           ;usb_device.c: 2891: p->STAT.Val |= 0x04;
  6876  000A5E  C043  FFD9         	movff	USBStdFeatureReqHandler@p,fsr2l
  6877  000A62  C044  FFDA         	movff	USBStdFeatureReqHandler@p+1,fsr2h
  6878  000A66  0E00               	movlw	0
  6879  000A68  84DB               	bsf	plusw2,2,c
  6880                           
  6881                           ; BSR set to: 2
  6882                           ;usb_device.c: 2892: p->STAT.Val |= 0x80;
  6883  000A6A  C043  FFD9         	movff	USBStdFeatureReqHandler@p,fsr2l
  6884  000A6E  C044  FFDA         	movff	USBStdFeatureReqHandler@p+1,fsr2h
  6885  000A72  0E00               	movlw	0
  6886  000A74  8EDB               	bsf	plusw2,7,c
  6887                           
  6888                           ;usb_device.c: 2893: }
  6889  000A76  0012               	return	
  6890  000A78                     i2l3185:
  6891                           
  6892                           ; BSR set to: 2
  6893                           ;usb_device.c: 2894: else
  6894                           ;usb_device.c: 2895: {
  6895                           ;usb_device.c: 2899: {((uint8_t_VAL*)&p)->Val ^= 0x0004;};
  6896  000A78  0E04               	movlw	4
  6897  000A7A  1A43               	xorwf	USBStdFeatureReqHandler@p,f,c
  6898                           
  6899                           ; BSR set to: 2
  6900                           ;usb_device.c: 2901: if(p->STAT.UOWN == 1)
  6901  000A7C  C043  FFD9         	movff	USBStdFeatureReqHandler@p,fsr2l
  6902  000A80  C044  FFDA         	movff	USBStdFeatureReqHandler@p+1,fsr2h
  6903  000A84  AEDF               	btfss	indf2,7,c
  6904  000A86  D01B               	goto	i2l3195
  6905                           
  6906                           ; BSR set to: 2
  6907                           ;usb_device.c: 2902: {
  6908                           ;usb_device.c: 2905: p->STAT.Val &= (~0x80);
  6909  000A88  C043  FFD9         	movff	USBStdFeatureReqHandler@p,fsr2l
  6910  000A8C  C044  FFDA         	movff	USBStdFeatureReqHandler@p+1,fsr2h
  6911  000A90  0E7F               	movlw	127
  6912  000A92  16DF               	andwf	indf2,f,c
  6913                           
  6914                           ; BSR set to: 2
  6915                           ;usb_device.c: 2906: p->STAT.Val |= 0x40;
  6916  000A94  C043  FFD9         	movff	USBStdFeatureReqHandler@p,fsr2l
  6917  000A98  C044  FFDA         	movff	USBStdFeatureReqHandler@p+1,fsr2h
  6918  000A9C  0E00               	movlw	0
  6919  000A9E  8CDB               	bsf	plusw2,6,c
  6920                           
  6921                           ; BSR set to: 2
  6922                           ;usb_device.c: 2907: USER_USB_CALLBACK_EVENT_HANDLER(EVENT_TRANSFER_TERMINATED,p,sizeof(
      +                          p));
  6923  000AA0  0E00               	movlw	0
  6924  000AA2  6E38               	movwf	USER_USB_CALLBACK_EVENT_HANDLER@event+1,c
  6925  000AA4  0E05               	movlw	5
  6926  000AA6  6E37               	movwf	USER_USB_CALLBACK_EVENT_HANDLER@event,c
  6927  000AA8  C043  F039         	movff	USBStdFeatureReqHandler@p,USER_USB_CALLBACK_EVENT_HANDLER@pdata
  6928  000AAC  C044  F03A         	movff	USBStdFeatureReqHandler@p+1,USER_USB_CALLBACK_EVENT_HANDLER@pdata+1
  6929  000AB0  0E00               	movlw	0
  6930  000AB2  6E3C               	movwf	USER_USB_CALLBACK_EVENT_HANDLER@size+1,c
  6931  000AB4  0E02               	movlw	2
  6932  000AB6  6E3B               	movwf	USER_USB_CALLBACK_EVENT_HANDLER@size,c
  6933  000AB8  EC69  F00E         	call	_USER_USB_CALLBACK_EVENT_HANDLER	;wreg free
  6934                           
  6935                           ;usb_device.c: 2908: }
  6936  000ABC  D006               	goto	i2l3197
  6937  000ABE                     i2l3195:
  6938                           
  6939                           ;usb_device.c: 2909: else
  6940                           ;usb_device.c: 2910: {
  6941                           ;usb_device.c: 2912: p->STAT.Val |= 0x40;
  6942  000ABE  C043  FFD9         	movff	USBStdFeatureReqHandler@p,fsr2l
  6943  000AC2  C044  FFDA         	movff	USBStdFeatureReqHandler@p+1,fsr2h
  6944  000AC6  0E00               	movlw	0
  6945  000AC8  8CDB               	bsf	plusw2,6,c
  6946  000ACA                     i2l3197:
  6947                           
  6948                           ;usb_device.c: 2913: }
  6949                           ;usb_device.c: 2917: {((uint8_t_VAL*)&p)->Val ^= 0x0004;};
  6950  000ACA  0E04               	movlw	4
  6951  000ACC  1A43               	xorwf	USBStdFeatureReqHandler@p,f,c
  6952                           
  6953                           ;usb_device.c: 2923: if((current_ep_data.bits.transfer_terminated != 0) || (p->STAT.UOWN
      +                           == 1))
  6954  000ACE  B242               	btfsc	USBStdFeatureReqHandler@current_ep_data,1,c
  6955  000AD0  D006               	goto	i2l636
  6956  000AD2  C043  FFD9         	movff	USBStdFeatureReqHandler@p,fsr2l
  6957  000AD6  C044  FFDA         	movff	USBStdFeatureReqHandler@p+1,fsr2h
  6958  000ADA  AEDF               	btfss	indf2,7,c
  6959  000ADC  D030               	goto	i2l3211
  6960  000ADE                     i2l636:
  6961                           
  6962                           ;usb_device.c: 2924: {
  6963                           ;usb_device.c: 2925: if(SetupPkt.EPDir == 0)
  6964  000ADE  0102               	movlb	2	; () banked
  6965  000AE0  BF24               	btfsc	36,7,b	;volatile
  6966  000AE2  D00B               	goto	i2l3205
  6967                           
  6968                           ; BSR set to: 2
  6969                           ;usb_device.c: 2926: {
  6970                           ;usb_device.c: 2927: ep_data_out[SetupPkt.EPNum].bits.transfer_terminated = 0;
  6971  000AE4  0102               	movlb	2	; () banked
  6972  000AE6  5124               	movf	36,w,b	;volatile
  6973  000AE8  0B0F               	andlw	15
  6974  000AEA  6E3F               	movwf	??_USBStdFeatureReqHandler& (0+255),c
  6975  000AEC  503F               	movf	??_USBStdFeatureReqHandler,w,c
  6976  000AEE  0D01               	mullw	1
  6977  000AF0  0E1D               	movlw	low _ep_data_out
  6978  000AF2  24F3               	addwf	prodl,w,c
  6979  000AF4  6ED9               	movwf	fsr2l,c
  6980  000AF6  0E00               	movlw	high _ep_data_out
  6981  000AF8  D00A               	goto	L9
  6982  000AFA                     i2l3205:
  6983                           
  6984                           ; BSR set to: 2
  6985                           ;usb_device.c: 2929: else
  6986                           ;usb_device.c: 2930: {
  6987                           ;usb_device.c: 2931: ep_data_in[SetupPkt.EPNum].bits.transfer_terminated = 0;
  6988  000AFA  0102               	movlb	2	; () banked
  6989  000AFC  5124               	movf	36,w,b	;volatile
  6990  000AFE  0B0F               	andlw	15
  6991  000B00  6E3F               	movwf	??_USBStdFeatureReqHandler& (0+255),c
  6992  000B02  503F               	movf	??_USBStdFeatureReqHandler,w,c
  6993  000B04  0D01               	mullw	1
  6994  000B06  0E1B               	movlw	low _ep_data_in
  6995  000B08  24F3               	addwf	prodl,w,c
  6996  000B0A  6ED9               	movwf	fsr2l,c
  6997  000B0C  0E00               	movlw	high _ep_data_in
  6998  000B0E                     L9:
  6999  000B0E  20F4               	addwfc	prodh,w,c
  7000  000B10  6EDA               	movwf	fsr2h,c
  7001  000B12  92DF               	bcf	indf2,1,c
  7002                           
  7003                           ; BSR set to: 2
  7004                           ;usb_device.c: 2932: }
  7005                           ;usb_device.c: 2934: p->STAT.Val &= ~(0x80 | 0x40 | 0x04);
  7006                           
  7007                           ; BSR set to: 2
  7008  000B14  C043  FFD9         	movff	USBStdFeatureReqHandler@p,fsr2l
  7009  000B18  C044  FFDA         	movff	USBStdFeatureReqHandler@p+1,fsr2h
  7010  000B1C  0E3B               	movlw	59
  7011  000B1E  16DF               	andwf	indf2,f,c
  7012                           
  7013                           ; BSR set to: 2
  7014                           ;usb_device.c: 2937: USER_USB_CALLBACK_EVENT_HANDLER(EVENT_TRANSFER_TERMINATED,p,sizeof(
      +                          p));
  7015  000B20  0E00               	movlw	0
  7016  000B22  6E38               	movwf	USER_USB_CALLBACK_EVENT_HANDLER@event+1,c
  7017  000B24  0E05               	movlw	5
  7018  000B26  6E37               	movwf	USER_USB_CALLBACK_EVENT_HANDLER@event,c
  7019  000B28  C043  F039         	movff	USBStdFeatureReqHandler@p,USER_USB_CALLBACK_EVENT_HANDLER@pdata
  7020  000B2C  C044  F03A         	movff	USBStdFeatureReqHandler@p+1,USER_USB_CALLBACK_EVENT_HANDLER@pdata+1
  7021  000B30  0E00               	movlw	0
  7022  000B32  6E3C               	movwf	USER_USB_CALLBACK_EVENT_HANDLER@size+1,c
  7023  000B34  0E02               	movlw	2
  7024  000B36  6E3B               	movwf	USER_USB_CALLBACK_EVENT_HANDLER@size,c
  7025  000B38  EC69  F00E         	call	_USER_USB_CALLBACK_EVENT_HANDLER	;wreg free
  7026                           
  7027                           ;usb_device.c: 2938: }
  7028  000B3C  D006               	goto	i2l3213
  7029  000B3E                     i2l3211:
  7030                           
  7031                           ;usb_device.c: 2939: else
  7032                           ;usb_device.c: 2940: {
  7033                           ;usb_device.c: 2942: p->STAT.Val &= ~(0x80 | 0x40 | 0x04);
  7034  000B3E  C043  FFD9         	movff	USBStdFeatureReqHandler@p,fsr2l
  7035  000B42  C044  FFDA         	movff	USBStdFeatureReqHandler@p+1,fsr2h
  7036  000B46  0E3B               	movlw	59
  7037  000B48  16DF               	andwf	indf2,f,c
  7038  000B4A                     i2l3213:
  7039                           
  7040                           ;usb_device.c: 2943: }
  7041                           ;usb_device.c: 2990: pUEP = (unsigned char*)(&UEP0+SetupPkt.EPNum);
  7042  000B4A  0102               	movlb	2	; () banked
  7043  000B4C  5124               	movf	36,w,b	;volatile
  7044  000B4E  0B0F               	andlw	15
  7045  000B50  6E3F               	movwf	??_USBStdFeatureReqHandler& (0+255),c
  7046  000B52  503F               	movf	??_USBStdFeatureReqHandler,w,c
  7047  000B54  0D01               	mullw	1
  7048  000B56  0E53               	movlw	83
  7049  000B58  24F3               	addwf	prodl,w,c
  7050  000B5A  6E40               	movwf	USBStdFeatureReqHandler@pUEP,c
  7051  000B5C  0E0F               	movlw	15
  7052  000B5E  20F4               	addwfc	prodh,w,c
  7053  000B60  6E41               	movwf	USBStdFeatureReqHandler@pUEP+1,c
  7054                           
  7055                           ; BSR set to: 2
  7056                           ;usb_device.c: 2994: *pUEP &= ~0x0001;
  7057  000B62  C040  FFD9         	movff	USBStdFeatureReqHandler@pUEP,fsr2l
  7058  000B66  C041  FFDA         	movff	USBStdFeatureReqHandler@pUEP+1,fsr2h
  7059  000B6A  0EFE               	movlw	254
  7060  000B6C  16DF               	andwf	indf2,f,c
  7061                           
  7062                           ; BSR set to: 2
  7063  000B6E  0012               	return	
  7064  000B70                     __end_of_USBStdFeatureReqHandler:
  7065                           	opt stack 0
  7066                           pclatu	equ	0xFFB
  7067                           pclath	equ	0xFFA
  7068                           tblptru	equ	0xFF8
  7069                           tblptrh	equ	0xFF7
  7070                           tblptrl	equ	0xFF6
  7071                           tablat	equ	0xFF5
  7072                           prodh	equ	0xFF4
  7073                           prodl	equ	0xFF3
  7074                           intcon	equ	0xFF2
  7075                           postinc0	equ	0xFEE
  7076                           fsr0h	equ	0xFEA
  7077                           fsr0l	equ	0xFE9
  7078                           wreg	equ	0xFE8
  7079                           indf1	equ	0xFE7
  7080                           postinc1	equ	0xFE6
  7081                           postdec1	equ	0xFE5
  7082                           plusw1	equ	0xFE3
  7083                           fsr1h	equ	0xFE2
  7084                           fsr1l	equ	0xFE1
  7085                           indf2	equ	0xFDF
  7086                           postinc2	equ	0xFDE
  7087                           postdec2	equ	0xFDD
  7088                           plusw2	equ	0xFDB
  7089                           fsr2h	equ	0xFDA
  7090                           fsr2l	equ	0xFD9
  7091                           status	equ	0xFD8
  7092                           
  7093 ;; *************** function _USER_USB_CALLBACK_EVENT_HANDLER *****************
  7094 ;; Defined at:
  7095 ;;		line 167 in file "main.c"
  7096 ;; Parameters:    Size  Location     Type
  7097 ;;  event           2   12[COMRAM] enum E3863
  7098 ;;  pdata           2   14[COMRAM] PTR void 
  7099 ;;		 -> USTATcopy(1), USBActiveConfiguration(1), BDT(32), NULL(0), 
  7100 ;;  size            2   16[COMRAM] unsigned int 
  7101 ;; Auto vars:     Size  Location     Type
  7102 ;;		None
  7103 ;; Return value:  Size  Location     Type
  7104 ;;                  1    wreg      unsigned char 
  7105 ;; Registers used:
  7106 ;;		wreg, fsr2l, fsr2h, status,2, status,0, prodl, prodh, cstack
  7107 ;; Tracked objects:
  7108 ;;		On entry : 0/0
  7109 ;;		On exit  : 0/0
  7110 ;;		Unchanged: 0/0
  7111 ;; Data sizes:     COMRAM   BANK0   BANK1 BANK2hh BANK2hl
  7112 ;;      Params:         6       0       0       0       0
  7113 ;;      Locals:         0       0       0       0       0
  7114 ;;      Temps:          2       0       0       0       0
  7115 ;;      Totals:         8       0       0       0       0
  7116 ;;Total ram usage:        8 bytes
  7117 ;; Hardware stack levels used:    1
  7118 ;; Hardware stack levels required when called:    3
  7119 ;; This function calls:
  7120 ;;		_APP_KeyboardInit
  7121 ;;		_USBCheckHIDRequest
  7122 ;;		i2_SYSTEM_Initialize
  7123 ;; This function is called by:
  7124 ;;		_USBDeviceTasks
  7125 ;;		_USBStdSetCfgHandler
  7126 ;;		_USBSuspend
  7127 ;;		_USBWakeFromSuspend
  7128 ;;		_USBCtrlTrfSetupHandler
  7129 ;;		_USBCheckStdRequest
  7130 ;;		_USBStdFeatureReqHandler
  7131 ;; This function uses a non-reentrant model
  7132 ;;
  7133                           
  7134                           	psect	text28
  7135  001CD2                     __ptext28:
  7136                           	opt stack 0
  7137  001CD2                     _USER_USB_CALLBACK_EVENT_HANDLER:
  7138                           	opt stack 23
  7139                           
  7140                           ;main.c: 169: switch((int)event)
  7141                           
  7142                           ; BSR set to: 2
  7143                           ;incstack = 0
  7144  001CD2  D01C               	goto	i2l2917
  7145  001CD4                     i2l2901:
  7146                           
  7147                           ;main.c: 180: if(SOFCounter < 32767)
  7148  001CD4  2819               	incf	_SOFCounter,w,c	;volatile
  7149  001CD6  E104               	bnz	i2u229_40
  7150  001CD8  0E7F               	movlw	127
  7151  001CDA  181A               	xorwf	_SOFCounter+1,w,c	;volatile
  7152  001CDC  B4D8               	btfsc	status,2,c
  7153  001CDE  D003               	goto	i2l2905
  7154  001CE0                     i2u229_40:
  7155                           
  7156                           ;main.c: 181: {
  7157                           ;main.c: 182: SOFCounter++;
  7158  001CE0  4A19               	infsnz	_SOFCounter,f,c	;volatile
  7159  001CE2  2A1A               	incf	_SOFCounter+1,f,c	;volatile
  7160                           
  7161                           ;main.c: 183: }
  7162  001CE4  0012               	return	
  7163  001CE6                     i2l2905:
  7164                           
  7165                           ;main.c: 184: else
  7166                           ;main.c: 185: {
  7167                           ;main.c: 186: SOFCounter = 0;
  7168  001CE6  0E00               	movlw	0
  7169  001CE8  6E1A               	movwf	_SOFCounter+1,c	;volatile
  7170  001CEA  0E00               	movlw	0
  7171  001CEC  6E19               	movwf	_SOFCounter,c	;volatile
  7172                           
  7173                           ;main.c: 187: }
  7174                           ;main.c: 188: break;
  7175  001CEE  0012               	return	
  7176  001CF0                     i2l2907:
  7177                           
  7178                           ;main.c: 200: SYSTEM_Initialize(SYSTEM_STATE_USB_SUSPEND);
  7179  001CF0  0E01               	movlw	1
  7180  001CF2  EC9E  F010         	call	i2_SYSTEM_Initialize
  7181                           
  7182                           ;main.c: 201: break;
  7183  001CF6  0012               	return	
  7184  001CF8                     i2l2909:
  7185                           
  7186                           ;main.c: 211: SYSTEM_Initialize(SYSTEM_STATE_USB_RESUME);
  7187  001CF8  0E02               	movlw	2
  7188  001CFA  EC9E  F010         	call	i2_SYSTEM_Initialize
  7189                           
  7190                           ;main.c: 212: break;
  7191  001CFE  0012               	return	
  7192  001D00                     i2l2911:
  7193                           
  7194                           ;main.c: 217: APP_KeyboardInit();
  7195  001D00  ECF3  F00E         	call	_APP_KeyboardInit	;wreg free
  7196                           
  7197                           ;main.c: 220: break;
  7198                           
  7199                           ;main.c: 219: case EVENT_SET_DESCRIPTOR:
  7200                           
  7201                           ;main.c: 218: break;
  7202  001D04  0012               	return	
  7203  001D06                     i2l2913:
  7204                           
  7205                           ;main.c: 225: USBCheckHIDRequest();
  7206  001D06  ECD8  F009         	call	_USBCheckHIDRequest	;wreg free
  7207                           
  7208                           ;main.c: 236: }
  7209                           
  7210                           ;main.c: 235: break;
  7211                           
  7212                           ;main.c: 234: default:
  7213                           
  7214                           ;main.c: 232: break;
  7215                           
  7216                           ;main.c: 231: case EVENT_TRANSFER_TERMINATED:
  7217                           
  7218                           ;main.c: 229: break;
  7219                           
  7220                           ;main.c: 228: case EVENT_BUS_ERROR:
  7221                           
  7222                           ;main.c: 226: break;
  7223  001D0A  0012               	return	
  7224  001D0C                     i2l2917:
  7225  001D0C  C037  F03D         	movff	USER_USB_CALLBACK_EVENT_HANDLER@event,??_USER_USB_CALLBACK_EVENT_HANDLER
  7226  001D10  C038  F03E         	movff	USER_USB_CALLBACK_EVENT_HANDLER@event+1,??_USER_USB_CALLBACK_EVENT_HANDLER+1
  7227                           
  7228                           ; Switch on 2 bytes has been partitioned into a top level switch of size 1, and 2 sub-sw
      +                          itches
  7229                           ; Switch size 1, requested type "space"
  7230                           ; Number of cases is 2, Range of values is 0 to 127
  7231                           ; switch strategies available:
  7232                           ; Name         Instructions Cycles
  7233                           ; simple_byte            7     4 (average)
  7234                           ;	Chosen strategy is simple_byte
  7235  001D14  503E               	movf	??_USER_USB_CALLBACK_EVENT_HANDLER+1,w,c
  7236  001D16  0A00               	xorlw	0	; case 0
  7237  001D18  B4D8               	btfsc	status,2,c
  7238  001D1A  D004               	goto	i2l4517
  7239  001D1C  0A7F               	xorlw	127	; case 127
  7240  001D1E  A4D8               	btfss	status,2,c
  7241  001D20  0012               	return	
  7242  001D22  D01A               	goto	i2l4519
  7243  001D24                     i2l4517:
  7244                           
  7245                           ; Switch size 1, requested type "space"
  7246                           ; Number of cases is 8, Range of values is 1 to 117
  7247                           ; switch strategies available:
  7248                           ; Name         Instructions Cycles
  7249                           ; simple_byte           25    13 (average)
  7250                           ;	Chosen strategy is simple_byte
  7251  001D24  503D               	movf	??_USER_USB_CALLBACK_EVENT_HANDLER,w,c
  7252  001D26  0A01               	xorlw	1	; case 1
  7253  001D28  B4D8               	btfsc	status,2,c
  7254  001D2A  D7EA               	goto	i2l2911
  7255  001D2C  0A03               	xorlw	3	; case 2
  7256  001D2E  B4D8               	btfsc	status,2,c
  7257  001D30  0012               	return	
  7258  001D32  0A01               	xorlw	1	; case 3
  7259  001D34  B4D8               	btfsc	status,2,c
  7260  001D36  D7E7               	goto	i2l2913
  7261  001D38  0A06               	xorlw	6	; case 5
  7262  001D3A  B4D8               	btfsc	status,2,c
  7263  001D3C  0012               	return	
  7264  001D3E  0A77               	xorlw	119	; case 114
  7265  001D40  B4D8               	btfsc	status,2,c
  7266  001D42  0012               	return	
  7267  001D44  0A01               	xorlw	1	; case 115
  7268  001D46  B4D8               	btfsc	status,2,c
  7269  001D48  D7C5               	goto	i2l2901
  7270  001D4A  0A07               	xorlw	7	; case 116
  7271  001D4C  B4D8               	btfsc	status,2,c
  7272  001D4E  D7D4               	goto	i2l2909
  7273  001D50  0A01               	xorlw	1	; case 117
  7274  001D52  A4D8               	btfss	status,2,c
  7275  001D54  0012               	return	
  7276  001D56  D7CC               	goto	i2l2907
  7277  001D58                     i2l4519:
  7278                           
  7279                           ; Switch size 1, requested type "space"
  7280                           ; Number of cases is 1, Range of values is 255 to 255
  7281                           ; switch strategies available:
  7282                           ; Name         Instructions Cycles
  7283                           ; simple_byte            4     3 (average)
  7284                           ;	Chosen strategy is simple_byte
  7285  001D58  503D               	movf	??_USER_USB_CALLBACK_EVENT_HANDLER,w,c
  7286  001D5A  0AFF               	xorlw	255	; case 255
  7287  001D5C  0012               	return	
  7288  001D5E                     __end_of_USER_USB_CALLBACK_EVENT_HANDLER:
  7289                           	opt stack 0
  7290                           pclatu	equ	0xFFB
  7291                           pclath	equ	0xFFA
  7292                           tblptru	equ	0xFF8
  7293                           tblptrh	equ	0xFF7
  7294                           tblptrl	equ	0xFF6
  7295                           tablat	equ	0xFF5
  7296                           prodh	equ	0xFF4
  7297                           prodl	equ	0xFF3
  7298                           intcon	equ	0xFF2
  7299                           postinc0	equ	0xFEE
  7300                           fsr0h	equ	0xFEA
  7301                           fsr0l	equ	0xFE9
  7302                           wreg	equ	0xFE8
  7303                           indf1	equ	0xFE7
  7304                           postinc1	equ	0xFE6
  7305                           postdec1	equ	0xFE5
  7306                           plusw1	equ	0xFE3
  7307                           fsr1h	equ	0xFE2
  7308                           fsr1l	equ	0xFE1
  7309                           indf2	equ	0xFDF
  7310                           postinc2	equ	0xFDE
  7311                           postdec2	equ	0xFDD
  7312                           plusw2	equ	0xFDB
  7313                           fsr2h	equ	0xFDA
  7314                           fsr2l	equ	0xFD9
  7315                           status	equ	0xFD8
  7316                           
  7317 ;; *************** function i2_SYSTEM_Initialize *****************
  7318 ;; Defined at:
  7319 ;;		line 69 in file "system.c"
  7320 ;; Parameters:    Size  Location     Type
  7321 ;;  state           1    wreg     enum E3846
  7322 ;; Auto vars:     Size  Location     Type
  7323 ;;  state           1    0[COMRAM] enum E3846
  7324 ;; Return value:  Size  Location     Type
  7325 ;;                  1    wreg      void 
  7326 ;; Registers used:
  7327 ;;		wreg, status,2, status,0, cstack
  7328 ;; Tracked objects:
  7329 ;;		On entry : 0/0
  7330 ;;		On exit  : 0/0
  7331 ;;		Unchanged: 0/0
  7332 ;; Data sizes:     COMRAM   BANK0   BANK1 BANK2hh BANK2hl
  7333 ;;      Params:         0       0       0       0       0
  7334 ;;      Locals:         1       0       0       0       0
  7335 ;;      Temps:          0       0       0       0       0
  7336 ;;      Totals:         1       0       0       0       0
  7337 ;;Total ram usage:        1 bytes
  7338 ;; Hardware stack levels used:    1
  7339 ;; Hardware stack levels required when called:    1
  7340 ;; This function calls:
  7341 ;;		i2_BUTTON_Enable
  7342 ;; This function is called by:
  7343 ;;		_USER_USB_CALLBACK_EVENT_HANDLER
  7344 ;; This function uses a non-reentrant model
  7345 ;;
  7346                           
  7347                           	psect	text29
  7348  00213C                     __ptext29:
  7349                           	opt stack 0
  7350  00213C                     i2_SYSTEM_Initialize:
  7351                           	opt stack 24
  7352                           
  7353                           ;incstack = 0
  7354                           ;i2SYSTEM_Initialize@state stored from wreg
  7355  00213C  6E2B               	movwf	i2SYSTEM_Initialize@state,c
  7356                           
  7357                           ;system.c: 71: switch(state)
  7358  00213E  D004               	goto	i2l2897
  7359  002140                     i2l2893:
  7360                           
  7361                           ;system.c: 78: BUTTON_Enable(BUTTON_S1);
  7362  002140  0E00               	movlw	0
  7363  002142  ECCC  F010         	call	i2_BUTTON_Enable
  7364                           
  7365                           ;system.c: 86: }
  7366                           
  7367                           ;system.c: 85: break;
  7368                           
  7369                           ;system.c: 84: case SYSTEM_STATE_USB_RESUME:
  7370                           
  7371                           ;system.c: 82: break;
  7372                           
  7373                           ;system.c: 81: case SYSTEM_STATE_USB_SUSPEND:
  7374                           
  7375                           ;system.c: 79: break;
  7376  002146  0012               	return	
  7377  002148                     i2l2897:
  7378  002148  502B               	movf	i2SYSTEM_Initialize@state,w,c
  7379                           
  7380                           ; Switch size 1, requested type "space"
  7381                           ; Number of cases is 3, Range of values is 0 to 2
  7382                           ; switch strategies available:
  7383                           ; Name         Instructions Cycles
  7384                           ; simple_byte           10     6 (average)
  7385                           ;	Chosen strategy is simple_byte
  7386  00214A  0A00               	xorlw	0	; case 0
  7387  00214C  B4D8               	btfsc	status,2,c
  7388  00214E  D7F8               	goto	i2l2893
  7389  002150  0A01               	xorlw	1	; case 1
  7390  002152  B4D8               	btfsc	status,2,c
  7391  002154  0012               	return	
  7392  002156  0A03               	xorlw	3	; case 2
  7393  002158  0012               	return	
  7394  00215A                     __end_ofi2_SYSTEM_Initialize:
  7395                           	opt stack 0
  7396                           pclatu	equ	0xFFB
  7397                           pclath	equ	0xFFA
  7398                           tblptru	equ	0xFF8
  7399                           tblptrh	equ	0xFF7
  7400                           tblptrl	equ	0xFF6
  7401                           tablat	equ	0xFF5
  7402                           prodh	equ	0xFF4
  7403                           prodl	equ	0xFF3
  7404                           intcon	equ	0xFF2
  7405                           postinc0	equ	0xFEE
  7406                           fsr0h	equ	0xFEA
  7407                           fsr0l	equ	0xFE9
  7408                           wreg	equ	0xFE8
  7409                           indf1	equ	0xFE7
  7410                           postinc1	equ	0xFE6
  7411                           postdec1	equ	0xFE5
  7412                           plusw1	equ	0xFE3
  7413                           fsr1h	equ	0xFE2
  7414                           fsr1l	equ	0xFE1
  7415                           indf2	equ	0xFDF
  7416                           postinc2	equ	0xFDE
  7417                           postdec2	equ	0xFDD
  7418                           plusw2	equ	0xFDB
  7419                           fsr2h	equ	0xFDA
  7420                           fsr2l	equ	0xFD9
  7421                           status	equ	0xFD8
  7422                           
  7423 ;; *************** function i2_BUTTON_Enable *****************
  7424 ;; Defined at:
  7425 ;;		line 129 in file "buttons.c"
  7426 ;; Parameters:    Size  Location     Type
  7427 ;;  button          1    wreg     enum E3600
  7428 ;; Auto vars:     Size  Location     Type
  7429 ;;  button          1  (no storage) enum E3600
  7430 ;; Return value:  Size  Location     Type
  7431 ;;                  1    wreg      void 
  7432 ;; Registers used:
  7433 ;;		wreg, status,2
  7434 ;; Tracked objects:
  7435 ;;		On entry : 0/0
  7436 ;;		On exit  : 0/0
  7437 ;;		Unchanged: 0/0
  7438 ;; Data sizes:     COMRAM   BANK0   BANK1 BANK2hh BANK2hl
  7439 ;;      Params:         0       0       0       0       0
  7440 ;;      Locals:         0       0       0       0       0
  7441 ;;      Temps:          0       0       0       0       0
  7442 ;;      Totals:         0       0       0       0       0
  7443 ;;Total ram usage:        0 bytes
  7444 ;; Hardware stack levels used:    1
  7445 ;; This function calls:
  7446 ;;		Nothing
  7447 ;; This function is called by:
  7448 ;;		i2_SYSTEM_Initialize
  7449 ;; This function uses a non-reentrant model
  7450 ;;
  7451                           
  7452                           	psect	text30
  7453  002198                     __ptext30:
  7454                           	opt stack 0
  7455  002198                     i2_BUTTON_Enable:
  7456                           	opt stack 24
  7457                           
  7458                           ;buttons.c: 133: ANSEL = 0x00;
  7459                           
  7460                           ;incstack = 0
  7461  002198  0E00               	movlw	0
  7462  00219A  6E7E               	movwf	3966,c	;volatile
  7463                           
  7464                           ;buttons.c: 134: ANSELH = 0x00;
  7465  00219C  0E00               	movlw	0
  7466  00219E  6E7F               	movwf	3967,c	;volatile
  7467                           
  7468                           ;buttons.c: 138: TRISB = 0xf0;
  7469  0021A0  0EF0               	movlw	240
  7470  0021A2  6E93               	movwf	3987,c	;volatile
  7471                           
  7472                           ;buttons.c: 139: TRISC = 0xff;
  7473  0021A4  6894               	setf	3988,c	;volatile
  7474  0021A6  0012               	return		;funcret
  7475  0021A8                     __end_ofi2_BUTTON_Enable:
  7476                           	opt stack 0
  7477                           pclatu	equ	0xFFB
  7478                           pclath	equ	0xFFA
  7479                           tblptru	equ	0xFF8
  7480                           tblptrh	equ	0xFF7
  7481                           tblptrl	equ	0xFF6
  7482                           tablat	equ	0xFF5
  7483                           prodh	equ	0xFF4
  7484                           prodl	equ	0xFF3
  7485                           intcon	equ	0xFF2
  7486                           postinc0	equ	0xFEE
  7487                           fsr0h	equ	0xFEA
  7488                           fsr0l	equ	0xFE9
  7489                           wreg	equ	0xFE8
  7490                           indf1	equ	0xFE7
  7491                           postinc1	equ	0xFE6
  7492                           postdec1	equ	0xFE5
  7493                           plusw1	equ	0xFE3
  7494                           fsr1h	equ	0xFE2
  7495                           fsr1l	equ	0xFE1
  7496                           indf2	equ	0xFDF
  7497                           postinc2	equ	0xFDE
  7498                           postdec2	equ	0xFDD
  7499                           plusw2	equ	0xFDB
  7500                           fsr2h	equ	0xFDA
  7501                           fsr2l	equ	0xFD9
  7502                           status	equ	0xFD8
  7503                           
  7504 ;; *************** function _USBCheckHIDRequest *****************
  7505 ;; Defined at:
  7506 ;;		line 153 in file "usb_device_hid.c"
  7507 ;; Parameters:    Size  Location     Type
  7508 ;;		None
  7509 ;; Auto vars:     Size  Location     Type
  7510 ;;		None
  7511 ;; Return value:  Size  Location     Type
  7512 ;;                  1    wreg      void 
  7513 ;; Registers used:
  7514 ;;		wreg, status,2, status,0, cstack
  7515 ;; Tracked objects:
  7516 ;;		On entry : 0/0
  7517 ;;		On exit  : 0/0
  7518 ;;		Unchanged: 0/0
  7519 ;; Data sizes:     COMRAM   BANK0   BANK1 BANK2hh BANK2hl
  7520 ;;      Params:         0       0       0       0       0
  7521 ;;      Locals:         0       0       0       0       0
  7522 ;;      Temps:          0       0       0       0       0
  7523 ;;      Totals:         0       0       0       0       0
  7524 ;;Total ram usage:        0 bytes
  7525 ;; Hardware stack levels used:    1
  7526 ;; Hardware stack levels required when called:    1
  7527 ;; This function calls:
  7528 ;;		_USBHIDCBSetIdleRateHandler
  7529 ;;		_USBHIDCBSetReportHandler
  7530 ;; This function is called by:
  7531 ;;		_USER_USB_CALLBACK_EVENT_HANDLER
  7532 ;; This function uses a non-reentrant model
  7533 ;;
  7534                           
  7535                           	psect	text31
  7536  0013B0                     __ptext31:
  7537                           	opt stack 0
  7538  0013B0                     _USBCheckHIDRequest:
  7539                           	opt stack 24
  7540                           
  7541                           ;usb_device_hid.c: 155: if(SetupPkt.Recipient != (0x01)) return;
  7542                           
  7543                           ;incstack = 0
  7544  0013B0  0102               	movlb	2	; () banked
  7545  0013B2  5120               	movf	32,w,b	;volatile
  7546  0013B4  0B1F               	andlw	31
  7547  0013B6  06E8               	decf	wreg,f,c
  7548  0013B8  A4D8               	btfss	status,2,c
  7549  0013BA  0012               	return	
  7550                           
  7551                           ; BSR set to: 2
  7552                           ;usb_device_hid.c: 156: if(SetupPkt.bIntfID != 0x00) return;
  7553                           
  7554                           ; BSR set to: 2
  7555                           
  7556                           ; BSR set to: 2
  7557  0013BC  0102               	movlb	2	; () banked
  7558  0013BE  5124               	movf	36,w,b	;volatile
  7559  0013C0  A4D8               	btfss	status,2,c
  7560  0013C2  0012               	return	
  7561                           
  7562                           ; BSR set to: 2
  7563                           ;usb_device_hid.c: 163: if(SetupPkt.bRequest == 6)
  7564                           
  7565                           ; BSR set to: 2
  7566                           
  7567                           ; BSR set to: 2
  7568  0013C4  0E06               	movlw	6
  7569  0013C6  0102               	movlb	2	; () banked
  7570  0013C8  1921               	xorwf	33,w,b	;volatile
  7571  0013CA  B4D8               	btfsc	status,2,c
  7572  0013CC  D018               	goto	i2l2857
  7573  0013CE  D020               	goto	i2l2859
  7574  0013D0                     i2l2841:
  7575                           
  7576                           ; BSR set to: 2
  7577                           ;usb_device_hid.c: 168: if(USBActiveConfiguration == 1)
  7578  0013D0  0428               	decf	_USBActiveConfiguration,w,c	;volatile
  7579  0013D2  A4D8               	btfss	status,2,c
  7580  0013D4  D01D               	goto	i2l2859
  7581                           
  7582                           ; BSR set to: 2
  7583                           ;usb_device_hid.c: 169: {
  7584                           ;usb_device_hid.c: 170: { inPipes[0].pSrc.bRom = (const uint8_t*)&configDescriptor1 + 18
      +                          ; inPipes[0].wCount.Val = sizeof(USB_HID_DSC)+3; inPipes[0].info.Val = 0x40 | 0x80 | 0x0
      +                          0; };
  7585  0013D6  0E8E               	movlw	low (_configDescriptor1+18)
  7586  0013D8  6E09               	movwf	_inPipes,c	;volatile
  7587  0013DA  0E03               	movlw	high (_configDescriptor1+18)
  7588  0013DC  6E0A               	movwf	_inPipes+1,c	;volatile
  7589                           
  7590                           ; BSR set to: 2
  7591  0013DE  0E00               	movlw	0
  7592  0013E0  6E0E               	movwf	_inPipes+5,c	;volatile
  7593  0013E2  0E09               	movlw	9
  7594  0013E4  D00A               	goto	L10
  7595  0013E6                     i2l2847:
  7596                           
  7597                           ; BSR set to: 2
  7598  0013E6  0EC0               	movlw	192
  7599  0013E8  6E0C               	movwf	_inPipes+3,c	;volatile
  7600                           
  7601                           ; BSR set to: 2
  7602                           ;usb_device_hid.c: 174: }
  7603                           ;usb_device_hid.c: 175: break;
  7604  0013EA  D012               	goto	i2l2859
  7605  0013EC                     i2l2849:
  7606                           
  7607                           ; BSR set to: 2
  7608                           ;usb_device_hid.c: 178: {
  7609                           ;usb_device_hid.c: 179: { inPipes[0].pSrc.bRom = (const uint8_t*)&hid_rpt01; inPipes[0].
      +                          wCount.Val = 63; inPipes[0].info.Val = 0x40 | 0x80 | 0x00; };
  7610  0013EC  0E09               	movlw	low _hid_rpt01
  7611  0013EE  6E09               	movwf	_inPipes,c	;volatile
  7612  0013F0  0E03               	movlw	high _hid_rpt01
  7613  0013F2  6E0A               	movwf	_inPipes+1,c	;volatile
  7614                           
  7615                           ; BSR set to: 2
  7616  0013F4  0E00               	movlw	0
  7617  0013F6  6E0E               	movwf	_inPipes+5,c	;volatile
  7618  0013F8  0E3F               	movlw	63
  7619  0013FA                     L10:
  7620  0013FA  6E0D               	movwf	_inPipes+4,c	;volatile
  7621  0013FC  D7F4               	goto	i2l2847
  7622  0013FE                     i2l2857:
  7623                           
  7624                           ; BSR set to: 2
  7625  0013FE  0102               	movlb	2	; () banked
  7626  001400  5123               	movf	35,w,b	;volatile
  7627                           
  7628                           ; Switch size 1, requested type "space"
  7629                           ; Number of cases is 3, Range of values is 33 to 35
  7630                           ; switch strategies available:
  7631                           ; Name         Instructions Cycles
  7632                           ; simple_byte           10     6 (average)
  7633                           ;	Chosen strategy is simple_byte
  7634  001402  0A21               	xorlw	33	; case 33
  7635  001404  B4D8               	btfsc	status,2,c
  7636  001406  D7E4               	goto	i2l2841
  7637  001408  0A03               	xorlw	3	; case 34
  7638  00140A  B4D8               	btfsc	status,2,c
  7639  00140C  D7EF               	goto	i2l2849
  7640  00140E  0A01               	xorlw	1	; case 35
  7641  001410                     i2l2859:
  7642                           
  7643                           ; BSR set to: 2
  7644                           ;usb_device_hid.c: 199: }
  7645                           ;usb_device_hid.c: 201: if(SetupPkt.RequestType != (0x20>>5))
  7646  001410  0102               	movlb	2	; () banked
  7647  001412  3920               	swapf	32,w,b	;volatile
  7648  001414  32E8               	rrcf	wreg,f,c
  7649  001416  0B03               	andlw	3
  7650  001418  06E8               	decf	wreg,f,c
  7651  00141A  A4D8               	btfss	status,2,c
  7652  00141C  0012               	return	
  7653  00141E  D029               	goto	i2l2889
  7654  001420                     i2l2863:
  7655                           
  7656                           ; BSR set to: 2
  7657                           ;usb_device_hid.c: 215: USBHIDCBSetReportHandler();
  7658  001420  ECAD  F010         	call	_USBHIDCBSetReportHandler	;wreg free
  7659                           
  7660                           ;usb_device_hid.c: 217: break;
  7661  001424  0012               	return	
  7662  001426                     i2l2865:
  7663                           
  7664                           ;usb_device_hid.c: 219: { inPipes[0].pSrc.bRam = (uint8_t*)&idle_rate; inPipes[0].wCount
      +                          .Val = 1; inPipes[0].info.Val = 0x40 | 0x80 | 0x01; };
  7665  001426  0E8E               	movlw	low _idle_rate
  7666  001428  6E09               	movwf	_inPipes,c	;volatile
  7667  00142A  0E00               	movlw	high _idle_rate
  7668  00142C  6E0A               	movwf	_inPipes+1,c	;volatile
  7669  00142E  0E00               	movlw	0
  7670  001430  6E0E               	movwf	_inPipes+5,c	;volatile
  7671  001432  0E01               	movlw	1
  7672  001434  6E0D               	movwf	_inPipes+4,c	;volatile
  7673  001436  0EC1               	movlw	193
  7674  001438  6E0C               	movwf	_inPipes+3,c	;volatile
  7675                           
  7676                           ;usb_device_hid.c: 223: break;
  7677  00143A  0012               	return	
  7678  00143C                     i2l2871:
  7679                           
  7680                           ;usb_device_hid.c: 225: inPipes[0].info.Val = 0x00 | 0x80;
  7681  00143C  0E80               	movlw	128
  7682  00143E  6E0C               	movwf	_inPipes+3,c	;volatile
  7683                           
  7684                           ;usb_device_hid.c: 226: idle_rate = ((USB_SETUP_SET_IDLE_RATE*)&SetupPkt)->duration;
  7685  001440  C223 F08E          	movff	547,_idle_rate
  7686                           
  7687                           ;usb_device_hid.c: 227: USBHIDCBSetIdleRateHandler(((USB_SETUP_SET_IDLE_RATE*)&SetupPkt)
      +                          ->reportId, idle_rate);
  7688  001444  C08E  F02B         	movff	_idle_rate,USBHIDCBSetIdleRateHandler@newIdleRate
  7689  001448  0102               	movlb	2	; () banked
  7690  00144A  5122               	movf	34,w,b
  7691  00144C  ECBB  F010         	call	_USBHIDCBSetIdleRateHandler
  7692                           
  7693                           ;usb_device_hid.c: 228: break;
  7694  001450  0012               	return	
  7695  001452                     i2l2877:
  7696                           
  7697                           ;usb_device_hid.c: 230: { inPipes[0].pSrc.bRam = (uint8_t*)&active_protocol; inPipes[0].
      +                          wCount.Val = 1; inPipes[0].info.Val = 0x00 | 0x80 | 0x01; };
  7698  001452  0E8D               	movlw	low _active_protocol
  7699  001454  6E09               	movwf	_inPipes,c	;volatile
  7700  001456  0E00               	movlw	high _active_protocol
  7701  001458  6E0A               	movwf	_inPipes+1,c	;volatile
  7702  00145A  0E00               	movlw	0
  7703  00145C  6E0E               	movwf	_inPipes+5,c	;volatile
  7704  00145E  0E01               	movlw	1
  7705  001460  6E0D               	movwf	_inPipes+4,c	;volatile
  7706  001462  0E81               	movlw	129
  7707  001464  6E0C               	movwf	_inPipes+3,c	;volatile
  7708                           
  7709                           ;usb_device_hid.c: 234: break;
  7710  001466  0012               	return	
  7711  001468                     i2l2883:
  7712                           
  7713                           ;usb_device_hid.c: 236: inPipes[0].info.Val = 0x00 | 0x80;
  7714  001468  0E80               	movlw	128
  7715  00146A  6E0C               	movwf	_inPipes+3,c	;volatile
  7716                           
  7717                           ;usb_device_hid.c: 237: active_protocol = ((USB_SETUP_SET_PROTOCOL*)&SetupPkt)->protocol
      +                          ;
  7718  00146C  C222 F08D          	movff	546,_active_protocol
  7719                           
  7720                           ;usb_device_hid.c: 239: }
  7721                           
  7722                           ;usb_device_hid.c: 238: break;
  7723  001470  0012               	return	
  7724  001472                     i2l2889:
  7725  001472  0102               	movlb	2	; () banked
  7726  001474  5121               	movf	33,w,b	;volatile
  7727                           
  7728                           ; Switch size 1, requested type "space"
  7729                           ; Number of cases is 6, Range of values is 1 to 11
  7730                           ; switch strategies available:
  7731                           ; Name         Instructions Cycles
  7732                           ; simple_byte           19    10 (average)
  7733                           ;	Chosen strategy is simple_byte
  7734  001476  0A01               	xorlw	1	; case 1
  7735  001478  B4D8               	btfsc	status,2,c
  7736  00147A  0012               	return	
  7737  00147C  0A03               	xorlw	3	; case 2
  7738  00147E  B4D8               	btfsc	status,2,c
  7739  001480  D7D2               	goto	i2l2865
  7740  001482  0A01               	xorlw	1	; case 3
  7741  001484  B4D8               	btfsc	status,2,c
  7742  001486  D7E5               	goto	i2l2877
  7743  001488  0A0A               	xorlw	10	; case 9
  7744  00148A  B4D8               	btfsc	status,2,c
  7745  00148C  D7C9               	goto	i2l2863
  7746  00148E  0A03               	xorlw	3	; case 10
  7747  001490  B4D8               	btfsc	status,2,c
  7748  001492  D7D4               	goto	i2l2871
  7749  001494  0A01               	xorlw	1	; case 11
  7750  001496  A4D8               	btfss	status,2,c
  7751  001498  0012               	return	
  7752  00149A  D7E6               	goto	i2l2883
  7753  00149C                     __end_of_USBCheckHIDRequest:
  7754                           	opt stack 0
  7755                           pclatu	equ	0xFFB
  7756                           pclath	equ	0xFFA
  7757                           tblptru	equ	0xFF8
  7758                           tblptrh	equ	0xFF7
  7759                           tblptrl	equ	0xFF6
  7760                           tablat	equ	0xFF5
  7761                           prodh	equ	0xFF4
  7762                           prodl	equ	0xFF3
  7763                           intcon	equ	0xFF2
  7764                           postinc0	equ	0xFEE
  7765                           fsr0h	equ	0xFEA
  7766                           fsr0l	equ	0xFE9
  7767                           wreg	equ	0xFE8
  7768                           indf1	equ	0xFE7
  7769                           postinc1	equ	0xFE6
  7770                           postdec1	equ	0xFE5
  7771                           plusw1	equ	0xFE3
  7772                           fsr1h	equ	0xFE2
  7773                           fsr1l	equ	0xFE1
  7774                           indf2	equ	0xFDF
  7775                           postinc2	equ	0xFDE
  7776                           postdec2	equ	0xFDD
  7777                           plusw2	equ	0xFDB
  7778                           fsr2h	equ	0xFDA
  7779                           fsr2l	equ	0xFD9
  7780                           status	equ	0xFD8
  7781                           
  7782 ;; *************** function _USBHIDCBSetReportHandler *****************
  7783 ;; Defined at:
  7784 ;;		line 692 in file "app_device_keyboard.c"
  7785 ;; Parameters:    Size  Location     Type
  7786 ;;		None
  7787 ;; Auto vars:     Size  Location     Type
  7788 ;;		None
  7789 ;; Return value:  Size  Location     Type
  7790 ;;                  1    wreg      void 
  7791 ;; Registers used:
  7792 ;;		wreg, status,2, status,0
  7793 ;; Tracked objects:
  7794 ;;		On entry : 0/0
  7795 ;;		On exit  : 0/0
  7796 ;;		Unchanged: 0/0
  7797 ;; Data sizes:     COMRAM   BANK0   BANK1 BANK2hh BANK2hl
  7798 ;;      Params:         0       0       0       0       0
  7799 ;;      Locals:         0       0       0       0       0
  7800 ;;      Temps:          0       0       0       0       0
  7801 ;;      Totals:         0       0       0       0       0
  7802 ;;Total ram usage:        0 bytes
  7803 ;; Hardware stack levels used:    1
  7804 ;; This function calls:
  7805 ;;		Nothing
  7806 ;; This function is called by:
  7807 ;;		_USBCheckHIDRequest
  7808 ;; This function uses a non-reentrant model
  7809 ;;
  7810                           
  7811                           	psect	text32
  7812  00215A                     __ptext32:
  7813                           	opt stack 0
  7814  00215A                     _USBHIDCBSetReportHandler:
  7815                           	opt stack 24
  7816                           
  7817                           ;app_device_keyboard.c: 697: {outPipes[0].pDst.bRam = (uint8_t*)&CtrlTrfData;outPipes[0]
      +                          .wCount.Val = 8;outPipes[0].pFunc = USBHIDCBSetReportComplete;outPipes[0].info.bits.busy
      +                           = 1; };
  7818                           
  7819                           ;incstack = 0
  7820  00215A  0E28               	movlw	40
  7821  00215C  6E01               	movwf	_outPipes,c	;volatile
  7822  00215E  0E02               	movlw	2
  7823  002160  6E02               	movwf	_outPipes+1,c	;volatile
  7824  002162  0E00               	movlw	0
  7825  002164  6E06               	movwf	_outPipes+5,c	;volatile
  7826  002166  0E08               	movlw	8
  7827  002168  6E05               	movwf	_outPipes+4,c	;volatile
  7828  00216A  0EAE               	movlw	low _USBHIDCBSetReportComplete
  7829  00216C  6E07               	movwf	_outPipes+6,c	;volatile
  7830  00216E  0E21               	movlw	high _USBHIDCBSetReportComplete
  7831  002170  6E08               	movwf	_outPipes+7,c	;volatile
  7832  002172  8E04               	bsf	_outPipes+3,7,c	;volatile
  7833  002174  0012               	return		;funcret
  7834  002176                     __end_of_USBHIDCBSetReportHandler:
  7835                           	opt stack 0
  7836                           pclatu	equ	0xFFB
  7837                           pclath	equ	0xFFA
  7838                           tblptru	equ	0xFF8
  7839                           tblptrh	equ	0xFF7
  7840                           tblptrl	equ	0xFF6
  7841                           tablat	equ	0xFF5
  7842                           prodh	equ	0xFF4
  7843                           prodl	equ	0xFF3
  7844                           intcon	equ	0xFF2
  7845                           postinc0	equ	0xFEE
  7846                           fsr0h	equ	0xFEA
  7847                           fsr0l	equ	0xFE9
  7848                           wreg	equ	0xFE8
  7849                           indf1	equ	0xFE7
  7850                           postinc1	equ	0xFE6
  7851                           postdec1	equ	0xFE5
  7852                           plusw1	equ	0xFE3
  7853                           fsr1h	equ	0xFE2
  7854                           fsr1l	equ	0xFE1
  7855                           indf2	equ	0xFDF
  7856                           postinc2	equ	0xFDE
  7857                           postdec2	equ	0xFDD
  7858                           plusw2	equ	0xFDB
  7859                           fsr2h	equ	0xFDA
  7860                           fsr2l	equ	0xFD9
  7861                           status	equ	0xFD8
  7862                           
  7863 ;; *************** function _USBHIDCBSetIdleRateHandler *****************
  7864 ;; Defined at:
  7865 ;;		line 703 in file "app_device_keyboard.c"
  7866 ;; Parameters:    Size  Location     Type
  7867 ;;  reportID        1    wreg     unsigned char 
  7868 ;;  newIdleRate     1    0[COMRAM] unsigned char 
  7869 ;; Auto vars:     Size  Location     Type
  7870 ;;  reportID        1    1[COMRAM] unsigned char 
  7871 ;; Return value:  Size  Location     Type
  7872 ;;                  1    wreg      void 
  7873 ;; Registers used:
  7874 ;;		wreg, status,2
  7875 ;; Tracked objects:
  7876 ;;		On entry : 0/0
  7877 ;;		On exit  : 0/0
  7878 ;;		Unchanged: 0/0
  7879 ;; Data sizes:     COMRAM   BANK0   BANK1 BANK2hh BANK2hl
  7880 ;;      Params:         1       0       0       0       0
  7881 ;;      Locals:         1       0       0       0       0
  7882 ;;      Temps:          0       0       0       0       0
  7883 ;;      Totals:         2       0       0       0       0
  7884 ;;Total ram usage:        2 bytes
  7885 ;; Hardware stack levels used:    1
  7886 ;; This function calls:
  7887 ;;		Nothing
  7888 ;; This function is called by:
  7889 ;;		_USBCheckHIDRequest
  7890 ;; This function uses a non-reentrant model
  7891 ;;
  7892                           
  7893                           	psect	text33
  7894  002176                     __ptext33:
  7895                           	opt stack 0
  7896  002176                     _USBHIDCBSetIdleRateHandler:
  7897                           	opt stack 24
  7898                           
  7899                           ;incstack = 0
  7900                           ;USBHIDCBSetIdleRateHandler@reportID stored from wreg
  7901  002176  6E2C               	movwf	USBHIDCBSetIdleRateHandler@reportID,c
  7902                           
  7903                           ;app_device_keyboard.c: 708: if(reportID == 0)
  7904  002178  502C               	movf	USBHIDCBSetIdleRateHandler@reportID,w,c
  7905  00217A  A4D8               	btfss	status,2,c
  7906  00217C  0012               	return	
  7907                           
  7908                           ;app_device_keyboard.c: 709: {
  7909                           ;app_device_keyboard.c: 710: keyboardIdleRate = newIdleRate;
  7910  00217E  C02B  F080         	movff	USBHIDCBSetIdleRateHandler@newIdleRate,_keyboardIdleRate
  7911  002182  0100               	movlb	0	; () banked
  7912  002184  6B81               	clrf	(_keyboardIdleRate+1)& (0+255),b
  7913  002186  0012               	return	
  7914  002188                     __end_of_USBHIDCBSetIdleRateHandler:
  7915                           	opt stack 0
  7916                           pclatu	equ	0xFFB
  7917                           pclath	equ	0xFFA
  7918                           tblptru	equ	0xFF8
  7919                           tblptrh	equ	0xFF7
  7920                           tblptrl	equ	0xFF6
  7921                           tablat	equ	0xFF5
  7922                           prodh	equ	0xFF4
  7923                           prodl	equ	0xFF3
  7924                           intcon	equ	0xFF2
  7925                           postinc0	equ	0xFEE
  7926                           fsr0h	equ	0xFEA
  7927                           fsr0l	equ	0xFE9
  7928                           wreg	equ	0xFE8
  7929                           indf1	equ	0xFE7
  7930                           postinc1	equ	0xFE6
  7931                           postdec1	equ	0xFE5
  7932                           plusw1	equ	0xFE3
  7933                           fsr1h	equ	0xFE2
  7934                           fsr1l	equ	0xFE1
  7935                           indf2	equ	0xFDF
  7936                           postinc2	equ	0xFDE
  7937                           postdec2	equ	0xFDD
  7938                           plusw2	equ	0xFDB
  7939                           fsr2h	equ	0xFDA
  7940                           fsr2l	equ	0xFD9
  7941                           status	equ	0xFD8
  7942                           
  7943 ;; *************** function _APP_KeyboardInit *****************
  7944 ;; Defined at:
  7945 ;;		line 329 in file "app_device_keyboard.c"
  7946 ;; Parameters:    Size  Location     Type
  7947 ;;		None
  7948 ;; Auto vars:     Size  Location     Type
  7949 ;;		None
  7950 ;; Return value:  Size  Location     Type
  7951 ;;                  1    wreg      void 
  7952 ;; Registers used:
  7953 ;;		wreg, fsr2l, fsr2h, status,2, status,0, prodl, prodh, cstack
  7954 ;; Tracked objects:
  7955 ;;		On entry : 0/0
  7956 ;;		On exit  : 0/0
  7957 ;;		Unchanged: 0/0
  7958 ;; Data sizes:     COMRAM   BANK0   BANK1 BANK2hh BANK2hl
  7959 ;;      Params:         0       0       0       0       0
  7960 ;;      Locals:         0       0       0       0       0
  7961 ;;      Temps:          0       0       0       0       0
  7962 ;;      Totals:         0       0       0       0       0
  7963 ;;Total ram usage:        0 bytes
  7964 ;; Hardware stack levels used:    1
  7965 ;; Hardware stack levels required when called:    2
  7966 ;; This function calls:
  7967 ;;		_USBEnableEndpoint
  7968 ;;		i2_USBTransferOnePacket
  7969 ;; This function is called by:
  7970 ;;		_USER_USB_CALLBACK_EVENT_HANDLER
  7971 ;; This function uses a non-reentrant model
  7972 ;;
  7973                           
  7974                           	psect	text34
  7975  001DE6                     __ptext34:
  7976                           	opt stack 0
  7977  001DE6                     _APP_KeyboardInit:
  7978                           	opt stack 23
  7979                           
  7980                           ;app_device_keyboard.c: 333: keyboard.lastINTransmission = 0;
  7981                           
  7982                           ;incstack = 0
  7983  001DE6  0E00               	movlw	0
  7984  001DE8  6E0F               	movwf	_keyboard,c
  7985  001DEA  0E00               	movlw	0
  7986  001DEC  6E10               	movwf	_keyboard+1,c
  7987                           
  7988                           ;app_device_keyboard.c: 335: keyboard.key = 4;
  7989  001DEE  0E04               	movlw	4
  7990  001DF0  6E13               	movwf	_keyboard+4,c
  7991                           
  7992                           ;app_device_keyboard.c: 336: keyboard.waitingForRelease = 0;
  7993  001DF2  0E00               	movlw	0
  7994  001DF4  6E14               	movwf	_keyboard+5,c
  7995                           
  7996                           ;app_device_keyboard.c: 339: keyboardIdleRate = 500;
  7997  001DF6  0E01               	movlw	1
  7998  001DF8  0100               	movlb	0	; () banked
  7999  001DFA  6F81               	movwf	(_keyboardIdleRate+1)& (0+255),b
  8000  001DFC  0EF4               	movlw	244
  8001  001DFE  6F80               	movwf	_keyboardIdleRate& (0+255),b
  8002                           
  8003                           ;app_device_keyboard.c: 344: while(OldSOFCount != SOFCounter)
  8004  001E00  D004               	goto	i2l2825
  8005  001E02                     i2l48:
  8006                           
  8007                           ; BSR set to: 0
  8008                           ;app_device_keyboard.c: 345: {
  8009                           ;app_device_keyboard.c: 346: OldSOFCount = SOFCounter;
  8010  001E02  C019  F07E         	movff	_SOFCounter,_OldSOFCount	;volatile
  8011  001E06  C01A  F07F         	movff	_SOFCounter+1,_OldSOFCount+1	;volatile
  8012  001E0A                     i2l2825:
  8013                           
  8014                           ; BSR set to: 0
  8015  001E0A  5019               	movf	_SOFCounter,w,c	;volatile
  8016  001E0C  0100               	movlb	0	; () banked
  8017  001E0E  197E               	xorwf	_OldSOFCount& (0+255),w,b
  8018  001E10  E1F8               	bnz	i2l48
  8019  001E12  501A               	movf	_SOFCounter+1,w,c	;volatile
  8020  001E14  0100               	movlb	0	; () banked
  8021  001E16  197F               	xorwf	(_OldSOFCount+1)& (0+255),w,b
  8022  001E18  A4D8               	btfss	status,2,c
  8023  001E1A  D7F3               	goto	i2l48
  8024                           
  8025                           ; BSR set to: 0
  8026                           ;app_device_keyboard.c: 347: }
  8027                           ;app_device_keyboard.c: 350: USBEnableEndpoint(1, 0x02|0x04|0x10|0x08);
  8028                           
  8029                           ; BSR set to: 0
  8030  001E1C  0E1E               	movlw	30
  8031  001E1E  6E33               	movwf	USBEnableEndpoint@options,c
  8032  001E20  0E01               	movlw	1
  8033  001E22  ECB9  F00F         	call	_USBEnableEndpoint
  8034                           
  8035                           ;app_device_keyboard.c: 353: keyboard.lastOUTTransmission = USBTransferOnePacket(1,0,(ui
      +                          nt8_t*)&outputReport,sizeof(outputReport));
  8036  001E26  0E00               	movlw	0
  8037  001E28  6E2B               	movwf	i2USBTransferOnePacket@dir,c
  8038  001E2A  0E48               	movlw	72
  8039  001E2C  6E2C               	movwf	i2USBTransferOnePacket@data,c
  8040  001E2E  0E02               	movlw	2
  8041  001E30  6E2D               	movwf	i2USBTransferOnePacket@data+1,c
  8042  001E32  0E08               	movlw	8
  8043  001E34  6E2E               	movwf	i2USBTransferOnePacket@len,c
  8044  001E36  0E01               	movlw	1
  8045  001E38  ECD3  F00C         	call	i2_USBTransferOnePacket
  8046  001E3C  C02B  F011         	movff	?i2_USBTransferOnePacket,_keyboard+2
  8047  001E40  C02C  F012         	movff	?i2_USBTransferOnePacket+1,_keyboard+3
  8048  001E44  0012               	return		;funcret
  8049  001E46                     __end_of_APP_KeyboardInit:
  8050                           	opt stack 0
  8051                           pclatu	equ	0xFFB
  8052                           pclath	equ	0xFFA
  8053                           tblptru	equ	0xFF8
  8054                           tblptrh	equ	0xFF7
  8055                           tblptrl	equ	0xFF6
  8056                           tablat	equ	0xFF5
  8057                           prodh	equ	0xFF4
  8058                           prodl	equ	0xFF3
  8059                           intcon	equ	0xFF2
  8060                           postinc0	equ	0xFEE
  8061                           fsr0h	equ	0xFEA
  8062                           fsr0l	equ	0xFE9
  8063                           wreg	equ	0xFE8
  8064                           indf1	equ	0xFE7
  8065                           postinc1	equ	0xFE6
  8066                           postdec1	equ	0xFE5
  8067                           plusw1	equ	0xFE3
  8068                           fsr1h	equ	0xFE2
  8069                           fsr1l	equ	0xFE1
  8070                           indf2	equ	0xFDF
  8071                           postinc2	equ	0xFDE
  8072                           postdec2	equ	0xFDD
  8073                           plusw2	equ	0xFDB
  8074                           fsr2h	equ	0xFDA
  8075                           fsr2l	equ	0xFD9
  8076                           status	equ	0xFD8
  8077                           
  8078 ;; *************** function i2_USBTransferOnePacket *****************
  8079 ;; Defined at:
  8080 ;;		line 1013 in file "usb_device.c"
  8081 ;; Parameters:    Size  Location     Type
  8082 ;;  ep              1    wreg     unsigned char 
  8083 ;;  dir             1    0[COMRAM] unsigned char 
  8084 ;;  data            2    1[COMRAM] PTR unsigned char 
  8085 ;;		 -> inputReport(8), outputReport(8), 
  8086 ;;  len             1    3[COMRAM] unsigned char 
  8087 ;; Auto vars:     Size  Location     Type
  8088 ;;  ep              1    4[COMRAM] unsigned char 
  8089 ;;  USBTransferO    2    5[COMRAM] PTR volatile struct __BD
  8090 ;;		 -> BDT(32), NULL(0), 
  8091 ;; Return value:  Size  Location     Type
  8092 ;;                  2    0[COMRAM] PTR void 
  8093 ;; Registers used:
  8094 ;;		wreg, fsr2l, fsr2h, status,2, status,0, prodl, prodh
  8095 ;; Tracked objects:
  8096 ;;		On entry : 0/0
  8097 ;;		On exit  : 0/0
  8098 ;;		Unchanged: 0/0
  8099 ;; Data sizes:     COMRAM   BANK0   BANK1 BANK2hh BANK2hl
  8100 ;;      Params:         4       0       0       0       0
  8101 ;;      Locals:         3       0       0       0       0
  8102 ;;      Temps:          0       0       0       0       0
  8103 ;;      Totals:         7       0       0       0       0
  8104 ;;Total ram usage:        7 bytes
  8105 ;; Hardware stack levels used:    1
  8106 ;; This function calls:
  8107 ;;		Nothing
  8108 ;; This function is called by:
  8109 ;;		_APP_KeyboardInit
  8110 ;; This function uses a non-reentrant model
  8111 ;;
  8112                           
  8113                           	psect	text35
  8114  0019A6                     __ptext35:
  8115                           	opt stack 0
  8116  0019A6                     i2_USBTransferOnePacket:
  8117                           	opt stack 24
  8118                           
  8119                           ;incstack = 0
  8120                           ;i2USBTransferOnePacket@ep stored from wreg
  8121  0019A6  6E2F               	movwf	i2USBTransferOnePacket@ep,c
  8122                           
  8123                           ;usb_device.c: 1015: volatile BDT_ENTRY* handle;
  8124                           ;usb_device.c: 1018: if(dir != 0)
  8125  0019A8  502B               	movf	i2USBTransferOnePacket@dir,w,c
  8126  0019AA  B4D8               	btfsc	status,2,c
  8127  0019AC  D007               	goto	i2l2791
  8128                           
  8129                           ;usb_device.c: 1019: {
  8130                           ;usb_device.c: 1021: handle = pBDTEntryIn[ep];
  8131  0019AE  502F               	movf	i2USBTransferOnePacket@ep,w,c
  8132  0019B0  0D02               	mullw	2
  8133  0019B2  0E15               	movlw	low _pBDTEntryIn
  8134  0019B4  24F3               	addwf	prodl,w,c
  8135  0019B6  6ED9               	movwf	fsr2l,c
  8136  0019B8  0E00               	movlw	high _pBDTEntryIn
  8137  0019BA  D006               	goto	L11
  8138  0019BC                     i2l2791:
  8139                           
  8140                           ;usb_device.c: 1023: else
  8141                           ;usb_device.c: 1024: {
  8142                           ;usb_device.c: 1026: handle = pBDTEntryOut[ep];
  8143  0019BC  502F               	movf	i2USBTransferOnePacket@ep,w,c
  8144  0019BE  0D02               	mullw	2
  8145  0019C0  0E78               	movlw	low _pBDTEntryOut
  8146  0019C2  24F3               	addwf	prodl,w,c
  8147  0019C4  6ED9               	movwf	fsr2l,c
  8148  0019C6  0E00               	movlw	high _pBDTEntryOut
  8149  0019C8                     L11:
  8150  0019C8  20F4               	addwfc	prodh,w,c
  8151  0019CA  6EDA               	movwf	fsr2h,c
  8152  0019CC  CFDE F030          	movff	postinc2,i2USBTransferOnePacket@handle
  8153  0019D0  CFDD F031          	movff	postdec2,i2USBTransferOnePacket@handle+1
  8154                           
  8155                           ;usb_device.c: 1027: }
  8156                           ;usb_device.c: 1031: if(handle == 0)
  8157  0019D4  5030               	movf	i2USBTransferOnePacket@handle,w,c
  8158  0019D6  1031               	iorwf	i2USBTransferOnePacket@handle+1,w,c
  8159  0019D8  A4D8               	btfss	status,2,c
  8160  0019DA  D005               	goto	i2l2799
  8161                           
  8162                           ;usb_device.c: 1032: {
  8163                           ;usb_device.c: 1033: return 0;
  8164  0019DC  0E00               	movlw	0
  8165  0019DE  6E2B               	movwf	?i2_USBTransferOnePacket,c
  8166  0019E0  0E00               	movlw	0
  8167  0019E2  6E2C               	movwf	?i2_USBTransferOnePacket+1,c
  8168  0019E4  0012               	return	
  8169  0019E6                     i2l2799:
  8170                           
  8171                           ;usb_device.c: 1034: }
  8172                           ;usb_device.c: 1047: handle->ADR = ((uint16_t)(data));
  8173  0019E6  EE20 F002          	lfsr	2,2
  8174  0019EA  5030               	movf	i2USBTransferOnePacket@handle,w,c
  8175  0019EC  26D9               	addwf	fsr2l,f,c
  8176  0019EE  5031               	movf	i2USBTransferOnePacket@handle+1,w,c
  8177  0019F0  22DA               	addwfc	fsr2h,f,c
  8178  0019F2  C02C  FFDE         	movff	i2USBTransferOnePacket@data,postinc2
  8179  0019F6  C02D  FFDD         	movff	i2USBTransferOnePacket@data+1,postdec2
  8180                           
  8181                           ;usb_device.c: 1048: handle->CNT = len;
  8182  0019FA  EE20 F001          	lfsr	2,1
  8183  0019FE  5030               	movf	i2USBTransferOnePacket@handle,w,c
  8184  001A00  26D9               	addwf	fsr2l,f,c
  8185  001A02  5031               	movf	i2USBTransferOnePacket@handle+1,w,c
  8186  001A04  22DA               	addwfc	fsr2h,f,c
  8187  001A06  C02E  FFDF         	movff	i2USBTransferOnePacket@len,indf2
  8188                           
  8189                           ;usb_device.c: 1049: handle->STAT.Val &= 0x40;
  8190  001A0A  C030  FFD9         	movff	i2USBTransferOnePacket@handle,fsr2l
  8191  001A0E  C031  FFDA         	movff	i2USBTransferOnePacket@handle+1,fsr2h
  8192  001A12  0E40               	movlw	64
  8193  001A14  16DF               	andwf	indf2,f,c
  8194                           
  8195                           ;usb_device.c: 1050: handle->STAT.Val |= (0x08 & 0x08);
  8196  001A16  C030  FFD9         	movff	i2USBTransferOnePacket@handle,fsr2l
  8197  001A1A  C031  FFDA         	movff	i2USBTransferOnePacket@handle+1,fsr2h
  8198  001A1E  0E00               	movlw	0
  8199  001A20  86DB               	bsf	plusw2,3,c
  8200                           
  8201                           ;usb_device.c: 1051: handle->STAT.Val |= 0x80;
  8202  001A22  C030  FFD9         	movff	i2USBTransferOnePacket@handle,fsr2l
  8203  001A26  C031  FFDA         	movff	i2USBTransferOnePacket@handle+1,fsr2h
  8204  001A2A  0E00               	movlw	0
  8205  001A2C  8EDB               	bsf	plusw2,7,c
  8206                           
  8207                           ;usb_device.c: 1054: if(dir != 0)
  8208  001A2E  502B               	movf	i2USBTransferOnePacket@dir,w,c
  8209  001A30  B4D8               	btfsc	status,2,c
  8210  001A32  D007               	goto	i2l2811
  8211                           
  8212                           ;usb_device.c: 1055: {
  8213                           ;usb_device.c: 1057: {((uint8_t_VAL*)&pBDTEntryIn[ep])->Val ^= 0x0004;};
  8214  001A34  502F               	movf	i2USBTransferOnePacket@ep,w,c
  8215  001A36  0D02               	mullw	2
  8216  001A38  0E15               	movlw	low _pBDTEntryIn
  8217  001A3A  24F3               	addwf	prodl,w,c
  8218  001A3C  6ED9               	movwf	fsr2l,c
  8219  001A3E  0E00               	movlw	high _pBDTEntryIn
  8220  001A40  D006               	goto	L12
  8221  001A42                     i2l2811:
  8222                           
  8223                           ;usb_device.c: 1059: else
  8224                           ;usb_device.c: 1060: {
  8225                           ;usb_device.c: 1062: {((uint8_t_VAL*)&pBDTEntryOut[ep])->Val ^= 0x0004;};
  8226  001A42  502F               	movf	i2USBTransferOnePacket@ep,w,c
  8227  001A44  0D02               	mullw	2
  8228  001A46  0E78               	movlw	low _pBDTEntryOut
  8229  001A48  24F3               	addwf	prodl,w,c
  8230  001A4A  6ED9               	movwf	fsr2l,c
  8231  001A4C  0E00               	movlw	high _pBDTEntryOut
  8232  001A4E                     L12:
  8233  001A4E  20F4               	addwfc	prodh,w,c
  8234  001A50  6EDA               	movwf	fsr2h,c
  8235  001A52  0E04               	movlw	4
  8236  001A54  1ADF               	xorwf	indf2,f,c
  8237                           
  8238                           ;usb_device.c: 1063: }
  8239                           ;usb_device.c: 1064: return (void*)handle;
  8240  001A56  C030  F02B         	movff	i2USBTransferOnePacket@handle,?i2_USBTransferOnePacket
  8241  001A5A  C031  F02C         	movff	i2USBTransferOnePacket@handle+1,?i2_USBTransferOnePacket+1
  8242  001A5E  0012               	return	
  8243  001A60                     __end_ofi2_USBTransferOnePacket:
  8244                           	opt stack 0
  8245                           pclatu	equ	0xFFB
  8246                           pclath	equ	0xFFA
  8247                           tblptru	equ	0xFF8
  8248                           tblptrh	equ	0xFF7
  8249                           tblptrl	equ	0xFF6
  8250                           tablat	equ	0xFF5
  8251                           prodh	equ	0xFF4
  8252                           prodl	equ	0xFF3
  8253                           intcon	equ	0xFF2
  8254                           postinc0	equ	0xFEE
  8255                           fsr0h	equ	0xFEA
  8256                           fsr0l	equ	0xFE9
  8257                           wreg	equ	0xFE8
  8258                           indf1	equ	0xFE7
  8259                           postinc1	equ	0xFE6
  8260                           postdec1	equ	0xFE5
  8261                           plusw1	equ	0xFE3
  8262                           fsr1h	equ	0xFE2
  8263                           fsr1l	equ	0xFE1
  8264                           indf2	equ	0xFDF
  8265                           postinc2	equ	0xFDE
  8266                           postdec2	equ	0xFDD
  8267                           plusw2	equ	0xFDB
  8268                           fsr2h	equ	0xFDA
  8269                           fsr2l	equ	0xFD9
  8270                           status	equ	0xFD8
  8271                           
  8272 ;; *************** function _USBEnableEndpoint *****************
  8273 ;; Defined at:
  8274 ;;		line 896 in file "usb_device.c"
  8275 ;; Parameters:    Size  Location     Type
  8276 ;;  ep              1    wreg     unsigned char 
  8277 ;;  options         1    8[COMRAM] unsigned char 
  8278 ;; Auto vars:     Size  Location     Type
  8279 ;;  ep              1   11[COMRAM] unsigned char 
  8280 ;;  p               2    9[COMRAM] PTR unsigned char 
  8281 ;;		 -> UEP0(1), 
  8282 ;; Return value:  Size  Location     Type
  8283 ;;                  1    wreg      void 
  8284 ;; Registers used:
  8285 ;;		wreg, fsr2l, fsr2h, status,2, status,0, prodl, prodh, cstack
  8286 ;; Tracked objects:
  8287 ;;		On entry : 0/0
  8288 ;;		On exit  : 0/0
  8289 ;;		Unchanged: 0/0
  8290 ;; Data sizes:     COMRAM   BANK0   BANK1 BANK2hh BANK2hl
  8291 ;;      Params:         1       0       0       0       0
  8292 ;;      Locals:         3       0       0       0       0
  8293 ;;      Temps:          0       0       0       0       0
  8294 ;;      Totals:         4       0       0       0       0
  8295 ;;Total ram usage:        4 bytes
  8296 ;; Hardware stack levels used:    1
  8297 ;; Hardware stack levels required when called:    1
  8298 ;; This function calls:
  8299 ;;		_USBConfigureEndpoint
  8300 ;; This function is called by:
  8301 ;;		_APP_KeyboardInit
  8302 ;; This function uses a non-reentrant model
  8303 ;;
  8304                           
  8305                           	psect	text36
  8306  001F72                     __ptext36:
  8307                           	opt stack 0
  8308  001F72                     _USBEnableEndpoint:
  8309                           	opt stack 23
  8310                           
  8311                           ;incstack = 0
  8312                           ;USBEnableEndpoint@ep stored from wreg
  8313  001F72  6E36               	movwf	USBEnableEndpoint@ep,c
  8314                           
  8315                           ;usb_device.c: 898: unsigned char* p;
  8316                           ;usb_device.c: 902: if(options & 0x04)
  8317  001F74  A433               	btfss	USBEnableEndpoint@options,2,c
  8318  001F76  D005               	goto	i2l2763
  8319                           
  8320                           ;usb_device.c: 903: {
  8321                           ;usb_device.c: 904: USBConfigureEndpoint(ep, 0);
  8322  001F78  0E00               	movlw	0
  8323  001F7A  6E2B               	movwf	USBConfigureEndpoint@direction,c
  8324  001F7C  5036               	movf	USBEnableEndpoint@ep,w,c
  8325  001F7E  ECD6  F00D         	call	_USBConfigureEndpoint
  8326  001F82                     i2l2763:
  8327                           
  8328                           ;usb_device.c: 905: }
  8329                           ;usb_device.c: 906: if(options & 0x02)
  8330  001F82  A233               	btfss	USBEnableEndpoint@options,1,c
  8331  001F84  D005               	goto	i2l2767
  8332                           
  8333                           ;usb_device.c: 907: {
  8334                           ;usb_device.c: 908: USBConfigureEndpoint(ep, 1);
  8335  001F86  0E01               	movlw	1
  8336  001F88  6E2B               	movwf	USBConfigureEndpoint@direction,c
  8337  001F8A  5036               	movf	USBEnableEndpoint@ep,w,c
  8338  001F8C  ECD6  F00D         	call	_USBConfigureEndpoint
  8339  001F90                     i2l2767:
  8340                           
  8341                           ;usb_device.c: 909: }
  8342                           ;usb_device.c: 917: p = (unsigned char*)(&UEP0+ep);
  8343  001F90  5036               	movf	USBEnableEndpoint@ep,w,c
  8344  001F92  0D01               	mullw	1
  8345  001F94  0E53               	movlw	83
  8346  001F96  24F3               	addwf	prodl,w,c
  8347  001F98  6E34               	movwf	USBEnableEndpoint@p,c
  8348  001F9A  0E0F               	movlw	15
  8349  001F9C  20F4               	addwfc	prodh,w,c
  8350  001F9E  6E35               	movwf	USBEnableEndpoint@p+1,c
  8351                           
  8352                           ;usb_device.c: 919: *p = options;
  8353  001FA0  C034  FFD9         	movff	USBEnableEndpoint@p,fsr2l
  8354  001FA4  C035  FFDA         	movff	USBEnableEndpoint@p+1,fsr2h
  8355  001FA8  C033  FFDF         	movff	USBEnableEndpoint@options,indf2
  8356  001FAC  0012               	return		;funcret
  8357  001FAE                     __end_of_USBEnableEndpoint:
  8358                           	opt stack 0
  8359                           pclatu	equ	0xFFB
  8360                           pclath	equ	0xFFA
  8361                           tblptru	equ	0xFF8
  8362                           tblptrh	equ	0xFF7
  8363                           tblptrl	equ	0xFF6
  8364                           tablat	equ	0xFF5
  8365                           prodh	equ	0xFF4
  8366                           prodl	equ	0xFF3
  8367                           intcon	equ	0xFF2
  8368                           postinc0	equ	0xFEE
  8369                           fsr0h	equ	0xFEA
  8370                           fsr0l	equ	0xFE9
  8371                           wreg	equ	0xFE8
  8372                           indf1	equ	0xFE7
  8373                           postinc1	equ	0xFE6
  8374                           postdec1	equ	0xFE5
  8375                           plusw1	equ	0xFE3
  8376                           fsr1h	equ	0xFE2
  8377                           fsr1l	equ	0xFE1
  8378                           indf2	equ	0xFDF
  8379                           postinc2	equ	0xFDE
  8380                           postdec2	equ	0xFDD
  8381                           plusw2	equ	0xFDB
  8382                           fsr2h	equ	0xFDA
  8383                           fsr2l	equ	0xFD9
  8384                           status	equ	0xFD8
  8385                           
  8386 ;; *************** function _USBConfigureEndpoint *****************
  8387 ;; Defined at:
  8388 ;;		line 1561 in file "usb_device.c"
  8389 ;; Parameters:    Size  Location     Type
  8390 ;;  EPNum           1    wreg     unsigned char 
  8391 ;;  direction       1    0[COMRAM] unsigned char 
  8392 ;; Auto vars:     Size  Location     Type
  8393 ;;  EPNum           1    5[COMRAM] unsigned char 
  8394 ;;  handle          2    6[COMRAM] PTR volatile struct __BD
  8395 ;;		 -> BDT(32), 
  8396 ;; Return value:  Size  Location     Type
  8397 ;;                  1    wreg      void 
  8398 ;; Registers used:
  8399 ;;		wreg, fsr2l, fsr2h, status,2, status,0, prodl, prodh
  8400 ;; Tracked objects:
  8401 ;;		On entry : 0/0
  8402 ;;		On exit  : 0/0
  8403 ;;		Unchanged: 0/0
  8404 ;; Data sizes:     COMRAM   BANK0   BANK1 BANK2hh BANK2hl
  8405 ;;      Params:         1       0       0       0       0
  8406 ;;      Locals:         3       0       0       0       0
  8407 ;;      Temps:          4       0       0       0       0
  8408 ;;      Totals:         8       0       0       0       0
  8409 ;;Total ram usage:        8 bytes
  8410 ;; Hardware stack levels used:    1
  8411 ;; This function calls:
  8412 ;;		Nothing
  8413 ;; This function is called by:
  8414 ;;		_USBEnableEndpoint
  8415 ;; This function uses a non-reentrant model
  8416 ;;
  8417                           
  8418                           	psect	text37
  8419  001BAC                     __ptext37:
  8420                           	opt stack 0
  8421  001BAC                     _USBConfigureEndpoint:
  8422                           	opt stack 23
  8423                           
  8424                           ;incstack = 0
  8425                           ;USBConfigureEndpoint@EPNum stored from wreg
  8426  001BAC  6E30               	movwf	USBConfigureEndpoint@EPNum,c
  8427                           
  8428                           ;usb_device.c: 1563: volatile BDT_ENTRY* handle;
  8429                           ;usb_device.c: 1567: handle = (volatile BDT_ENTRY*)&BDT[0];
  8430  001BAE  0E00               	movlw	0
  8431  001BB0  6E31               	movwf	USBConfigureEndpoint@handle,c
  8432  001BB2  0E02               	movlw	2
  8433  001BB4  6E32               	movwf	USBConfigureEndpoint@handle+1,c
  8434                           
  8435                           ;usb_device.c: 1568: handle += (4*EPNum+2*direction+0u);
  8436  001BB6  502B               	movf	USBConfigureEndpoint@direction,w,c
  8437  001BB8  6E2C               	movwf	??_USBConfigureEndpoint& (0+255),c
  8438  001BBA  6A2D               	clrf	(??_USBConfigureEndpoint+1)& (0+255),c
  8439  001BBC  90D8               	bcf	status,0,c
  8440  001BBE  362C               	rlcf	??_USBConfigureEndpoint,f,c
  8441  001BC0  362D               	rlcf	??_USBConfigureEndpoint+1,f,c
  8442  001BC2  5030               	movf	USBConfigureEndpoint@EPNum,w,c
  8443  001BC4  6E2E               	movwf	(??_USBConfigureEndpoint+2)& (0+255),c
  8444  001BC6  6A2F               	clrf	(??_USBConfigureEndpoint+3)& (0+255),c
  8445  001BC8  90D8               	bcf	status,0,c
  8446  001BCA  362E               	rlcf	??_USBConfigureEndpoint+2,f,c
  8447  001BCC  362F               	rlcf	??_USBConfigureEndpoint+3,f,c
  8448  001BCE  90D8               	bcf	status,0,c
  8449  001BD0  362E               	rlcf	??_USBConfigureEndpoint+2,f,c
  8450  001BD2  362F               	rlcf	??_USBConfigureEndpoint+3,f,c
  8451  001BD4  502C               	movf	??_USBConfigureEndpoint,w,c
  8452  001BD6  262E               	addwf	??_USBConfigureEndpoint+2,f,c
  8453  001BD8  502D               	movf	??_USBConfigureEndpoint+1,w,c
  8454  001BDA  222F               	addwfc	??_USBConfigureEndpoint+3,f,c
  8455  001BDC  90D8               	bcf	status,0,c
  8456  001BDE  362E               	rlcf	??_USBConfigureEndpoint+2,f,c
  8457  001BE0  362F               	rlcf	??_USBConfigureEndpoint+3,f,c
  8458  001BE2  90D8               	bcf	status,0,c
  8459  001BE4  362E               	rlcf	??_USBConfigureEndpoint+2,f,c
  8460  001BE6  362F               	rlcf	??_USBConfigureEndpoint+3,f,c
  8461  001BE8  502E               	movf	??_USBConfigureEndpoint+2,w,c
  8462  001BEA  2631               	addwf	USBConfigureEndpoint@handle,f,c
  8463  001BEC  502F               	movf	??_USBConfigureEndpoint+3,w,c
  8464  001BEE  2232               	addwfc	USBConfigureEndpoint@handle+1,f,c
  8465                           
  8466                           ;usb_device.c: 1570: handle->STAT.UOWN = 0;
  8467  001BF0  C031  FFD9         	movff	USBConfigureEndpoint@handle,fsr2l
  8468  001BF4  C032  FFDA         	movff	USBConfigureEndpoint@handle+1,fsr2h
  8469  001BF8  9EDF               	bcf	indf2,7,c
  8470                           
  8471                           ;usb_device.c: 1575: if(direction == 0)
  8472  001BFA  502B               	movf	USBConfigureEndpoint@direction,w,c
  8473  001BFC  A4D8               	btfss	status,2,c
  8474  001BFE  D007               	goto	i2l2753
  8475                           
  8476                           ;usb_device.c: 1576: {
  8477                           ;usb_device.c: 1577: pBDTEntryOut[EPNum] = handle;
  8478  001C00  5030               	movf	USBConfigureEndpoint@EPNum,w,c
  8479  001C02  0D02               	mullw	2
  8480  001C04  0E78               	movlw	low _pBDTEntryOut
  8481  001C06  24F3               	addwf	prodl,w,c
  8482  001C08  6ED9               	movwf	fsr2l,c
  8483  001C0A  0E00               	movlw	high _pBDTEntryOut
  8484  001C0C  D006               	goto	L13
  8485  001C0E                     i2l2753:
  8486                           
  8487                           ;usb_device.c: 1579: else
  8488                           ;usb_device.c: 1580: {
  8489                           ;usb_device.c: 1581: pBDTEntryIn[EPNum] = handle;
  8490  001C0E  5030               	movf	USBConfigureEndpoint@EPNum,w,c
  8491  001C10  0D02               	mullw	2
  8492  001C12  0E15               	movlw	low _pBDTEntryIn
  8493  001C14  24F3               	addwf	prodl,w,c
  8494  001C16  6ED9               	movwf	fsr2l,c
  8495  001C18  0E00               	movlw	high _pBDTEntryIn
  8496  001C1A                     L13:
  8497  001C1A  20F4               	addwfc	prodh,w,c
  8498  001C1C  6EDA               	movwf	fsr2h,c
  8499  001C1E  C031  FFDE         	movff	USBConfigureEndpoint@handle,postinc2
  8500  001C22  C032  FFDD         	movff	USBConfigureEndpoint@handle+1,postdec2
  8501                           
  8502                           ;usb_device.c: 1582: }
  8503                           ;usb_device.c: 1585: handle->STAT.DTS = 0;
  8504  001C26  C031  FFD9         	movff	USBConfigureEndpoint@handle,fsr2l
  8505  001C2A  C032  FFDA         	movff	USBConfigureEndpoint@handle+1,fsr2h
  8506  001C2E  9CDF               	bcf	indf2,6,c
  8507                           
  8508                           ;usb_device.c: 1586: (handle+1)->STAT.DTS = 1;
  8509  001C30  EE20 F004          	lfsr	2,4
  8510  001C34  5031               	movf	USBConfigureEndpoint@handle,w,c
  8511  001C36  26D9               	addwf	fsr2l,f,c
  8512  001C38  5032               	movf	USBConfigureEndpoint@handle+1,w,c
  8513  001C3A  22DA               	addwfc	fsr2h,f,c
  8514  001C3C  8CDF               	bsf	indf2,6,c
  8515  001C3E  0012               	return		;funcret
  8516  001C40                     __end_of_USBConfigureEndpoint:
  8517                           	opt stack 0
  8518                           pclatu	equ	0xFFB
  8519                           pclath	equ	0xFFA
  8520                           tblptru	equ	0xFF8
  8521                           tblptrh	equ	0xFF7
  8522                           tblptrl	equ	0xFF6
  8523                           tablat	equ	0xFF5
  8524                           prodh	equ	0xFF4
  8525                           prodl	equ	0xFF3
  8526                           intcon	equ	0xFF2
  8527                           postinc0	equ	0xFEE
  8528                           fsr0h	equ	0xFEA
  8529                           fsr0l	equ	0xFE9
  8530                           wreg	equ	0xFE8
  8531                           indf1	equ	0xFE7
  8532                           postinc1	equ	0xFE6
  8533                           postdec1	equ	0xFE5
  8534                           plusw1	equ	0xFE3
  8535                           fsr1h	equ	0xFE2
  8536                           fsr1l	equ	0xFE1
  8537                           indf2	equ	0xFDF
  8538                           postinc2	equ	0xFDE
  8539                           postdec2	equ	0xFDD
  8540                           plusw2	equ	0xFDB
  8541                           fsr2h	equ	0xFDA
  8542                           fsr2l	equ	0xFD9
  8543                           status	equ	0xFD8
  8544                           
  8545 ;; *************** function _USBCtrlTrfOutHandler *****************
  8546 ;; Defined at:
  8547 ;;		line 2555 in file "usb_device.c"
  8548 ;; Parameters:    Size  Location     Type
  8549 ;;		None
  8550 ;; Auto vars:     Size  Location     Type
  8551 ;;		None
  8552 ;; Return value:  Size  Location     Type
  8553 ;;                  1    wreg      void 
  8554 ;; Registers used:
  8555 ;;		wreg, fsr1l, fsr1h, fsr2l, fsr2h, status,2, status,0, pclat, tosl, prodl, prodh, cstack
  8556 ;; Tracked objects:
  8557 ;;		On entry : 0/0
  8558 ;;		On exit  : 0/0
  8559 ;;		Unchanged: 0/0
  8560 ;; Data sizes:     COMRAM   BANK0   BANK1 BANK2hh BANK2hl
  8561 ;;      Params:         0       0       0       0       0
  8562 ;;      Locals:         0       0       0       0       0
  8563 ;;      Temps:          0       0       0       0       0
  8564 ;;      Totals:         0       0       0       0       0
  8565 ;;Total ram usage:        0 bytes
  8566 ;; Hardware stack levels used:    1
  8567 ;; Hardware stack levels required when called:    2
  8568 ;; This function calls:
  8569 ;;		_USBCtrlTrfRxService
  8570 ;; This function is called by:
  8571 ;;		_USBCtrlEPService
  8572 ;; This function uses a non-reentrant model
  8573 ;;
  8574                           
  8575                           	psect	text38
  8576  001E46                     __ptext38:
  8577                           	opt stack 0
  8578  001E46                     _USBCtrlTrfOutHandler:
  8579                           	opt stack 23
  8580                           
  8581                           ;usb_device.c: 2557: if(controlTransferState == 2)
  8582                           
  8583                           ;incstack = 0
  8584  001E46  0E02               	movlw	2
  8585  001E48  1825               	xorwf	_controlTransferState,w,c	;volatile
  8586  001E4A  A4D8               	btfss	status,2,c
  8587  001E4C  D003               	goto	i2l3393
  8588                           
  8589                           ;usb_device.c: 2558: {
  8590                           ;usb_device.c: 2559: USBCtrlTrfRxService();
  8591  001E4E  ECB8  F007         	call	_USBCtrlTrfRxService	;wreg free
  8592                           
  8593                           ;usb_device.c: 2560: }
  8594  001E52  0012               	return	
  8595  001E54                     i2l3393:
  8596                           
  8597                           ;usb_device.c: 2561: else
  8598                           ;usb_device.c: 2562: {
  8599                           ;usb_device.c: 2565: controlTransferState = 0;
  8600  001E54  0E00               	movlw	0
  8601  001E56  6E25               	movwf	_controlTransferState,c	;volatile
  8602                           
  8603                           ;usb_device.c: 2572: if(BothEP0OutUOWNsSet == 0)
  8604  001E58  0100               	movlb	0	; () banked
  8605  001E5A  5184               	movf	_BothEP0OutUOWNsSet& (0+255),w,b	;volatile
  8606  001E5C  A4D8               	btfss	status,2,c
  8607  001E5E  D01F               	goto	i2l3401
  8608                           
  8609                           ; BSR set to: 0
  8610                           ;usb_device.c: 2573: {
  8611                           ;usb_device.c: 2574: pBDTEntryEP0OutNext->CNT = 8;
  8612  001E60  EE20 F001          	lfsr	2,1
  8613  001E64  5021               	movf	_pBDTEntryEP0OutNext,w,c
  8614  001E66  26D9               	addwf	fsr2l,f,c
  8615  001E68  5022               	movf	_pBDTEntryEP0OutNext+1,w,c
  8616  001E6A  22DA               	addwfc	fsr2h,f,c
  8617  001E6C  0E08               	movlw	8
  8618  001E6E  6EDF               	movwf	indf2,c
  8619                           
  8620                           ;usb_device.c: 2575: pBDTEntryEP0OutNext->ADR = ((uint16_t)(&SetupPkt));
  8621  001E70  EE20 F002          	lfsr	2,2
  8622  001E74  5021               	movf	_pBDTEntryEP0OutNext,w,c
  8623  001E76  26D9               	addwf	fsr2l,f,c
  8624  001E78  5022               	movf	_pBDTEntryEP0OutNext+1,w,c
  8625  001E7A  22DA               	addwfc	fsr2h,f,c
  8626  001E7C  0E20               	movlw	32
  8627  001E7E  6EDE               	movwf	postinc2,c
  8628  001E80  0E02               	movlw	2
  8629  001E82  6EDD               	movwf	postdec2,c
  8630                           
  8631                           ; BSR set to: 0
  8632                           ;usb_device.c: 2576: pBDTEntryEP0OutNext->STAT.Val = 0x00|(0x08 & 0x08)|0x04;
  8633  001E84  C021  FFD9         	movff	_pBDTEntryEP0OutNext,fsr2l
  8634  001E88  C022  FFDA         	movff	_pBDTEntryEP0OutNext+1,fsr2h
  8635  001E8C  0E0C               	movlw	12
  8636  001E8E  6EDF               	movwf	indf2,c
  8637                           
  8638                           ; BSR set to: 0
  8639                           ;usb_device.c: 2577: pBDTEntryEP0OutNext->STAT.Val |= 0x80;
  8640  001E90  C021  FFD9         	movff	_pBDTEntryEP0OutNext,fsr2l
  8641  001E94  C022  FFDA         	movff	_pBDTEntryEP0OutNext+1,fsr2h
  8642  001E98  0E00               	movlw	0
  8643  001E9A  8EDB               	bsf	plusw2,7,c
  8644                           
  8645                           ;usb_device.c: 2578: }
  8646  001E9C  0012               	return	
  8647  001E9E                     i2l3401:
  8648                           
  8649                           ; BSR set to: 0
  8650                           ;usb_device.c: 2579: else
  8651                           ;usb_device.c: 2580: {
  8652                           ;usb_device.c: 2581: BothEP0OutUOWNsSet = 0;
  8653  001E9E  0E00               	movlw	0
  8654  001EA0  0100               	movlb	0	; () banked
  8655  001EA2  6F84               	movwf	_BothEP0OutUOWNsSet& (0+255),b	;volatile
  8656                           
  8657                           ; BSR set to: 0
  8658  001EA4  0012               	return	
  8659  001EA6                     __end_of_USBCtrlTrfOutHandler:
  8660                           	opt stack 0
  8661                           pclatu	equ	0xFFB
  8662                           pclath	equ	0xFFA
  8663                           tblptru	equ	0xFF8
  8664                           tblptrh	equ	0xFF7
  8665                           tblptrl	equ	0xFF6
  8666                           tablat	equ	0xFF5
  8667                           prodh	equ	0xFF4
  8668                           prodl	equ	0xFF3
  8669                           intcon	equ	0xFF2
  8670                           postinc0	equ	0xFEE
  8671                           fsr0h	equ	0xFEA
  8672                           fsr0l	equ	0xFE9
  8673                           wreg	equ	0xFE8
  8674                           indf1	equ	0xFE7
  8675                           postinc1	equ	0xFE6
  8676                           postdec1	equ	0xFE5
  8677                           plusw1	equ	0xFE3
  8678                           fsr1h	equ	0xFE2
  8679                           fsr1l	equ	0xFE1
  8680                           indf2	equ	0xFDF
  8681                           postinc2	equ	0xFDE
  8682                           postdec2	equ	0xFDD
  8683                           plusw2	equ	0xFDB
  8684                           fsr2h	equ	0xFDA
  8685                           fsr2l	equ	0xFD9
  8686                           status	equ	0xFD8
  8687                           
  8688 ;; *************** function _USBCtrlTrfRxService *****************
  8689 ;; Defined at:
  8690 ;;		line 1870 in file "usb_device.c"
  8691 ;; Parameters:    Size  Location     Type
  8692 ;;		None
  8693 ;; Auto vars:     Size  Location     Type
  8694 ;;  byteToRead      1    1[COMRAM] unsigned char 
  8695 ;;  i               1    0[COMRAM] unsigned char 
  8696 ;; Return value:  Size  Location     Type
  8697 ;;                  1    wreg      void 
  8698 ;; Registers used:
  8699 ;;		wreg, fsr1l, fsr1h, fsr2l, fsr2h, status,2, status,0, pclat, tosl, prodl, prodh, cstack
  8700 ;; Tracked objects:
  8701 ;;		On entry : 0/0
  8702 ;;		On exit  : 0/0
  8703 ;;		Unchanged: 0/0
  8704 ;; Data sizes:     COMRAM   BANK0   BANK1 BANK2hh BANK2hl
  8705 ;;      Params:         0       0       0       0       0
  8706 ;;      Locals:         2       0       0       0       0
  8707 ;;      Temps:          0       0       0       0       0
  8708 ;;      Totals:         2       0       0       0       0
  8709 ;;Total ram usage:        2 bytes
  8710 ;; Hardware stack levels used:    1
  8711 ;; Hardware stack levels required when called:    1
  8712 ;; This function calls:
  8713 ;;		_USBCtrlEPAllowStatusStage
  8714 ;;		_USBHIDCBSetReportComplete
  8715 ;; This function is called by:
  8716 ;;		_USBCtrlTrfOutHandler
  8717 ;; This function uses a non-reentrant model
  8718 ;;
  8719                           
  8720                           	psect	text39
  8721  000F70                     __ptext39:
  8722                           	opt stack 0
  8723  000F70                     _USBCtrlTrfRxService:
  8724                           	opt stack 23
  8725                           
  8726                           ;usb_device.c: 1872: uint8_t byteToRead;
  8727                           ;usb_device.c: 1873: uint8_t i;
  8728                           ;usb_device.c: 1877: byteToRead = pBDTEntryEP0OutCurrent->CNT;
  8729                           
  8730                           ;incstack = 0
  8731  000F70  EE20 F001          	lfsr	2,1
  8732  000F74  501F               	movf	_pBDTEntryEP0OutCurrent,w,c
  8733  000F76  26D9               	addwf	fsr2l,f,c
  8734  000F78  5020               	movf	_pBDTEntryEP0OutCurrent+1,w,c
  8735  000F7A  22DA               	addwfc	fsr2h,f,c
  8736  000F7C  50DF               	movf	indf2,w,c
  8737  000F7E  6E2C               	movwf	USBCtrlTrfRxService@byteToRead,c
  8738                           
  8739                           ;usb_device.c: 1883: if(byteToRead > outPipes[0].wCount.Val)
  8740  000F80  502C               	movf	USBCtrlTrfRxService@byteToRead,w,c
  8741  000F82  5C05               	subwf	_outPipes+4,w,c	;volatile
  8742  000F84  0E00               	movlw	0
  8743  000F86  5806               	subwfb	_outPipes+5,w,c	;volatile
  8744  000F88  A0D8               	btfss	status,0,c
  8745                           
  8746                           ;usb_device.c: 1884: {
  8747                           ;usb_device.c: 1885: byteToRead = outPipes[0].wCount.Val;
  8748  000F8A  C005  F02C         	movff	_outPipes+4,USBCtrlTrfRxService@byteToRead	;volatile
  8749                           
  8750                           ;usb_device.c: 1886: }
  8751                           ;usb_device.c: 1888: outPipes[0].wCount.Val -= byteToRead;
  8752  000F8E  502C               	movf	USBCtrlTrfRxService@byteToRead,w,c
  8753  000F90  5E05               	subwf	_outPipes+4,f,c	;volatile
  8754  000F92  0E00               	movlw	0
  8755  000F94  5A06               	subwfb	_outPipes+5,f,c	;volatile
  8756                           
  8757                           ;usb_device.c: 1892: for(i=0;i<byteToRead;i++)
  8758  000F96  0E00               	movlw	0
  8759  000F98  6E2B               	movwf	USBCtrlTrfRxService@i,c
  8760  000F9A  D011               	goto	i2l3283
  8761  000F9C                     i2l3277:
  8762                           
  8763                           ;usb_device.c: 1893: {
  8764                           ;usb_device.c: 1894: *outPipes[0].pDst.bRam++ = CtrlTrfData[i];
  8765  000F9C  502B               	movf	USBCtrlTrfRxService@i,w,c
  8766  000F9E  0D01               	mullw	1
  8767  000FA0  0E28               	movlw	40
  8768  000FA2  24F3               	addwf	prodl,w,c
  8769  000FA4  6ED9               	movwf	fsr2l,c
  8770  000FA6  0E02               	movlw	2
  8771  000FA8  20F4               	addwfc	prodh,w,c
  8772  000FAA  6EDA               	movwf	fsr2h,c
  8773  000FAC  C001  FFE1         	movff	_outPipes,fsr1l	;volatile
  8774  000FB0  C002  FFE2         	movff	_outPipes+1,fsr1h	;volatile
  8775  000FB4  CFDF FFE7          	movff	indf2,indf1
  8776  000FB8  4A01               	infsnz	_outPipes,f,c	;volatile
  8777  000FBA  2A02               	incf	_outPipes+1,f,c	;volatile
  8778  000FBC  2A2B               	incf	USBCtrlTrfRxService@i,f,c
  8779  000FBE                     i2l3283:
  8780  000FBE  502C               	movf	USBCtrlTrfRxService@byteToRead,w,c
  8781  000FC0  5C2B               	subwf	USBCtrlTrfRxService@i,w,c
  8782  000FC2  A0D8               	btfss	status,0,c
  8783  000FC4  D7EB               	goto	i2l3277
  8784                           
  8785                           ;usb_device.c: 1895: }
  8786                           ;usb_device.c: 1899: if(outPipes[0].wCount.Val > 0)
  8787  000FC6  5005               	movf	_outPipes+4,w,c	;volatile
  8788  000FC8  1006               	iorwf	_outPipes+5,w,c	;volatile
  8789  000FCA  B4D8               	btfsc	status,2,c
  8790  000FCC  D032               	goto	i2l3299
  8791                           
  8792                           ;usb_device.c: 1900: {
  8793                           ;usb_device.c: 1901: pBDTEntryEP0OutNext->CNT = 8;
  8794  000FCE  EE20 F001          	lfsr	2,1
  8795  000FD2  5021               	movf	_pBDTEntryEP0OutNext,w,c
  8796  000FD4  26D9               	addwf	fsr2l,f,c
  8797  000FD6  5022               	movf	_pBDTEntryEP0OutNext+1,w,c
  8798  000FD8  22DA               	addwfc	fsr2h,f,c
  8799  000FDA  0E08               	movlw	8
  8800  000FDC  6EDF               	movwf	indf2,c
  8801                           
  8802                           ;usb_device.c: 1902: pBDTEntryEP0OutNext->ADR = ((uint16_t)(&CtrlTrfData));
  8803  000FDE  EE20 F002          	lfsr	2,2
  8804  000FE2  5021               	movf	_pBDTEntryEP0OutNext,w,c
  8805  000FE4  26D9               	addwf	fsr2l,f,c
  8806  000FE6  5022               	movf	_pBDTEntryEP0OutNext+1,w,c
  8807  000FE8  22DA               	addwfc	fsr2h,f,c
  8808  000FEA  0E28               	movlw	40
  8809  000FEC  6EDE               	movwf	postinc2,c
  8810  000FEE  0E02               	movlw	2
  8811  000FF0  6EDD               	movwf	postdec2,c
  8812                           
  8813                           ;usb_device.c: 1903: if(pBDTEntryEP0OutCurrent->STAT.DTS == 0)
  8814  000FF2  C01F  FFD9         	movff	_pBDTEntryEP0OutCurrent,fsr2l
  8815  000FF6  C020  FFDA         	movff	_pBDTEntryEP0OutCurrent+1,fsr2h
  8816  000FFA  BCDF               	btfsc	indf2,6,c
  8817  000FFC  D00D               	goto	i2l3295
  8818                           
  8819                           ;usb_device.c: 1904: {
  8820                           ;usb_device.c: 1905: pBDTEntryEP0OutNext->STAT.Val = 0x40|(0x08 & 0x08);
  8821  000FFE  C021  FFD9         	movff	_pBDTEntryEP0OutNext,fsr2l
  8822  001002  C022  FFDA         	movff	_pBDTEntryEP0OutNext+1,fsr2h
  8823  001006  0E48               	movlw	72
  8824  001008  6EDF               	movwf	indf2,c
  8825                           
  8826                           ;usb_device.c: 1906: pBDTEntryEP0OutNext->STAT.Val |= 0x80;
  8827  00100A  C021  FFD9         	movff	_pBDTEntryEP0OutNext,fsr2l
  8828  00100E  C022  FFDA         	movff	_pBDTEntryEP0OutNext+1,fsr2h
  8829  001012  0E00               	movlw	0
  8830  001014  8EDB               	bsf	plusw2,7,c
  8831                           
  8832                           ;usb_device.c: 1907: }
  8833  001016  0012               	return	
  8834  001018                     i2l3295:
  8835                           
  8836                           ;usb_device.c: 1908: else
  8837                           ;usb_device.c: 1909: {
  8838                           ;usb_device.c: 1910: pBDTEntryEP0OutNext->STAT.Val = 0x00|(0x08 & 0x08);
  8839  001018  C021  FFD9         	movff	_pBDTEntryEP0OutNext,fsr2l
  8840  00101C  C022  FFDA         	movff	_pBDTEntryEP0OutNext+1,fsr2h
  8841  001020  0E08               	movlw	8
  8842  001022  6EDF               	movwf	indf2,c
  8843                           
  8844                           ;usb_device.c: 1911: pBDTEntryEP0OutNext->STAT.Val |= 0x80;
  8845  001024  C021  FFD9         	movff	_pBDTEntryEP0OutNext,fsr2l
  8846  001028  C022  FFDA         	movff	_pBDTEntryEP0OutNext+1,fsr2h
  8847  00102C  0E00               	movlw	0
  8848  00102E  8EDB               	bsf	plusw2,7,c
  8849                           
  8850                           ;usb_device.c: 1912: }
  8851                           ;usb_device.c: 1913: }
  8852  001030  0012               	return	
  8853  001032                     i2l3299:
  8854                           
  8855                           ;usb_device.c: 1914: else
  8856                           ;usb_device.c: 1915: {
  8857                           ;usb_device.c: 1919: pBDTEntryEP0OutNext->CNT = 8;
  8858  001032  EE20 F001          	lfsr	2,1
  8859  001036  5021               	movf	_pBDTEntryEP0OutNext,w,c
  8860  001038  26D9               	addwf	fsr2l,f,c
  8861  00103A  5022               	movf	_pBDTEntryEP0OutNext+1,w,c
  8862  00103C  22DA               	addwfc	fsr2h,f,c
  8863  00103E  0E08               	movlw	8
  8864  001040  6EDF               	movwf	indf2,c
  8865                           
  8866                           ;usb_device.c: 1920: pBDTEntryEP0OutNext->ADR = ((uint16_t)(&SetupPkt));
  8867  001042  EE20 F002          	lfsr	2,2
  8868  001046  5021               	movf	_pBDTEntryEP0OutNext,w,c
  8869  001048  26D9               	addwf	fsr2l,f,c
  8870  00104A  5022               	movf	_pBDTEntryEP0OutNext+1,w,c
  8871  00104C  22DA               	addwfc	fsr2h,f,c
  8872  00104E  0E20               	movlw	32
  8873  001050  6EDE               	movwf	postinc2,c
  8874  001052  0E02               	movlw	2
  8875  001054  6EDD               	movwf	postdec2,c
  8876                           
  8877                           ;usb_device.c: 1924: pBDTEntryEP0OutNext->STAT.Val = 0x04;
  8878  001056  C021  FFD9         	movff	_pBDTEntryEP0OutNext,fsr2l
  8879  00105A  C022  FFDA         	movff	_pBDTEntryEP0OutNext+1,fsr2h
  8880  00105E  0E04               	movlw	4
  8881  001060  6EDF               	movwf	indf2,c
  8882                           
  8883                           ;usb_device.c: 1925: pBDTEntryEP0OutNext->STAT.Val |= 0x80;
  8884  001062  C021  FFD9         	movff	_pBDTEntryEP0OutNext,fsr2l
  8885  001066  C022  FFDA         	movff	_pBDTEntryEP0OutNext+1,fsr2h
  8886  00106A  0E00               	movlw	0
  8887  00106C  8EDB               	bsf	plusw2,7,c
  8888                           
  8889                           ;usb_device.c: 1932: if(outPipes[0].pFunc != (0))
  8890  00106E  5007               	movf	_outPipes+6,w,c	;volatile
  8891  001070  1008               	iorwf	_outPipes+7,w,c	;volatile
  8892  001072  B4D8               	btfsc	status,2,c
  8893  001074  D00E               	goto	i2l3309
  8894                           
  8895                           ;usb_device.c: 1933: {
  8896                           ;usb_device.c: 1939: outPipes[0].pFunc();
  8897  001076  EE20  F007         	lfsr	2,_outPipes+6	;volatile
  8898  00107A  D801               	call	i2u289_48
  8899  00107C  D00A               	goto	i2l3309
  8900  00107E                     i2u289_48:
  8901  00107E  0005               	push	
  8902  001080  6EFA               	movwf	pclath,c
  8903  001082  50DE               	movf	postinc2,w,c
  8904  001084  6EFD               	movwf	tosl,c
  8905  001086  50DE               	movf	postinc2,w,c
  8906  001088  6EFE               	movwf	tosh,c
  8907  00108A  50F8               	movf	tblptru,w,c
  8908  00108C  6EFF               	movwf	tosu,c
  8909  00108E  50FA               	movf	pclath,w,c
  8910  001090  0012               	return		;indir
  8911  001092                     i2l3309:
  8912                           
  8913                           ;usb_device.c: 1944: }
  8914                           ;usb_device.c: 1945: outPipes[0].info.bits.busy = 0;
  8915  001092  9E04               	bcf	_outPipes+3,7,c	;volatile
  8916                           
  8917                           ;usb_device.c: 1959: if(USBDeferStatusStagePacket == 0)
  8918  001094  5023               	movf	_USBDeferStatusStagePacket,w,c	;volatile
  8919  001096  A4D8               	btfss	status,2,c
  8920  001098  0012               	return	
  8921                           
  8922                           ;usb_device.c: 1960: {
  8923                           ;usb_device.c: 1961: USBCtrlEPAllowStatusStage();
  8924  00109A  EC05  F00C         	call	_USBCtrlEPAllowStatusStage	;wreg free
  8925  00109E  0012               	return	
  8926  0010A0                     __end_of_USBCtrlTrfRxService:
  8927                           	opt stack 0
  8928                           tosu	equ	0xFFF
  8929                           tosh	equ	0xFFE
  8930                           tosl	equ	0xFFD
  8931                           pclatu	equ	0xFFB
  8932                           pclath	equ	0xFFA
  8933                           tblptru	equ	0xFF8
  8934                           tblptrh	equ	0xFF7
  8935                           tblptrl	equ	0xFF6
  8936                           tablat	equ	0xFF5
  8937                           prodh	equ	0xFF4
  8938                           prodl	equ	0xFF3
  8939                           intcon	equ	0xFF2
  8940                           postinc0	equ	0xFEE
  8941                           fsr0h	equ	0xFEA
  8942                           fsr0l	equ	0xFE9
  8943                           wreg	equ	0xFE8
  8944                           indf1	equ	0xFE7
  8945                           postinc1	equ	0xFE6
  8946                           postdec1	equ	0xFE5
  8947                           plusw1	equ	0xFE3
  8948                           fsr1h	equ	0xFE2
  8949                           fsr1l	equ	0xFE1
  8950                           indf2	equ	0xFDF
  8951                           postinc2	equ	0xFDE
  8952                           postdec2	equ	0xFDD
  8953                           plusw2	equ	0xFDB
  8954                           fsr2h	equ	0xFDA
  8955                           fsr2l	equ	0xFD9
  8956                           status	equ	0xFD8
  8957                           
  8958 ;; *************** function _USBCtrlEPAllowStatusStage *****************
  8959 ;; Defined at:
  8960 ;;		line 1434 in file "usb_device.c"
  8961 ;; Parameters:    Size  Location     Type
  8962 ;;		None
  8963 ;; Auto vars:     Size  Location     Type
  8964 ;;		None
  8965 ;; Return value:  Size  Location     Type
  8966 ;;                  1    wreg      void 
  8967 ;; Registers used:
  8968 ;;		wreg, fsr2l, fsr2h, status,2, status,0
  8969 ;; Tracked objects:
  8970 ;;		On entry : 0/0
  8971 ;;		On exit  : 0/0
  8972 ;;		Unchanged: 0/0
  8973 ;; Data sizes:     COMRAM   BANK0   BANK1 BANK2hh BANK2hl
  8974 ;;      Params:         0       0       0       0       0
  8975 ;;      Locals:         0       0       0       0       0
  8976 ;;      Temps:          0       0       0       0       0
  8977 ;;      Totals:         0       0       0       0       0
  8978 ;;Total ram usage:        0 bytes
  8979 ;; Hardware stack levels used:    1
  8980 ;; This function calls:
  8981 ;;		Nothing
  8982 ;; This function is called by:
  8983 ;;		_USBDeviceTasks
  8984 ;;		_USBCtrlEPServiceComplete
  8985 ;;		_USBCtrlTrfRxService
  8986 ;; This function uses a non-reentrant model
  8987 ;;
  8988                           
  8989                           	psect	text40
  8990  00180A                     __ptext40:
  8991                           	opt stack 0
  8992  00180A                     _USBCtrlEPAllowStatusStage:
  8993                           	opt stack 23
  8994                           
  8995                           ;usb_device.c: 1441: if(USBStatusStageEnabledFlag1 == 0)
  8996                           
  8997                           ;incstack = 0
  8998  00180A  0100               	movlb	0	; () banked
  8999  00180C  5189               	movf	_USBStatusStageEnabledFlag1& (0+255),w,b	;volatile
  9000  00180E  A4D8               	btfss	status,2,c
  9001  001810  0012               	return	
  9002                           
  9003                           ; BSR set to: 0
  9004                           ;usb_device.c: 1442: {
  9005                           ;usb_device.c: 1443: USBStatusStageEnabledFlag1 = 1;
  9006  001812  0E01               	movlw	1
  9007  001814  0100               	movlb	0	; () banked
  9008  001816  6F89               	movwf	_USBStatusStageEnabledFlag1& (0+255),b	;volatile
  9009                           
  9010                           ;usb_device.c: 1444: if(USBStatusStageEnabledFlag2 == 0)
  9011  001818  0100               	movlb	0	; () banked
  9012  00181A  518A               	movf	_USBStatusStageEnabledFlag2& (0+255),w,b	;volatile
  9013  00181C  A4D8               	btfss	status,2,c
  9014  00181E  0012               	return	
  9015                           
  9016                           ; BSR set to: 0
  9017                           ;usb_device.c: 1445: {
  9018                           ;usb_device.c: 1446: USBStatusStageEnabledFlag2 = 1;
  9019  001820  0E01               	movlw	1
  9020  001822  0100               	movlb	0	; () banked
  9021  001824  6F8A               	movwf	_USBStatusStageEnabledFlag2& (0+255),b	;volatile
  9022                           
  9023                           ; BSR set to: 0
  9024                           ;usb_device.c: 1450: if(controlTransferState == 2)
  9025  001826  0E02               	movlw	2
  9026  001828  1825               	xorwf	_controlTransferState,w,c	;volatile
  9027  00182A  A4D8               	btfss	status,2,c
  9028  00182C  D015               	goto	i2l2993
  9029                           
  9030                           ; BSR set to: 0
  9031                           ;usb_device.c: 1451: {
  9032                           ;usb_device.c: 1452: pBDTEntryIn[0]->CNT = 0;
  9033  00182E  EE20 F001          	lfsr	2,1
  9034  001832  5015               	movf	_pBDTEntryIn,w,c
  9035  001834  26D9               	addwf	fsr2l,f,c
  9036  001836  5016               	movf	_pBDTEntryIn+1,w,c
  9037  001838  22DA               	addwfc	fsr2h,f,c
  9038  00183A  0E00               	movlw	0
  9039  00183C  6EDF               	movwf	indf2,c
  9040                           
  9041                           ; BSR set to: 0
  9042                           ;usb_device.c: 1453: pBDTEntryIn[0]->STAT.Val = 0x40|(0x08 & 0x08);
  9043  00183E  C015  FFD9         	movff	_pBDTEntryIn,fsr2l
  9044  001842  C016  FFDA         	movff	_pBDTEntryIn+1,fsr2h
  9045  001846  0E48               	movlw	72
  9046  001848  6EDF               	movwf	indf2,c
  9047                           
  9048                           ; BSR set to: 0
  9049                           ;usb_device.c: 1454: pBDTEntryIn[0]->STAT.Val |= 0x80;
  9050  00184A  C015  FFD9         	movff	_pBDTEntryIn,fsr2l
  9051  00184E  C016  FFDA         	movff	_pBDTEntryIn+1,fsr2h
  9052  001852  0E00               	movlw	0
  9053  001854  8EDB               	bsf	plusw2,7,c
  9054                           
  9055                           ;usb_device.c: 1455: }
  9056  001856  0012               	return	
  9057  001858                     i2l2993:
  9058                           
  9059                           ; BSR set to: 0
  9060                           ;usb_device.c: 1456: else if(controlTransferState == 1)
  9061  001858  0425               	decf	_controlTransferState,w,c	;volatile
  9062  00185A  A4D8               	btfss	status,2,c
  9063  00185C  0012               	return	
  9064                           
  9065                           ; BSR set to: 0
  9066                           ;usb_device.c: 1457: {
  9067                           ;usb_device.c: 1458: BothEP0OutUOWNsSet = 0;
  9068  00185E  0E00               	movlw	0
  9069  001860  0100               	movlb	0	; () banked
  9070  001862  6F84               	movwf	_BothEP0OutUOWNsSet& (0+255),b	;volatile
  9071                           
  9072                           ; BSR set to: 0
  9073                           ;usb_device.c: 1463: pBDTEntryEP0OutCurrent->CNT = 8;
  9074  001864  EE20 F001          	lfsr	2,1
  9075  001868  501F               	movf	_pBDTEntryEP0OutCurrent,w,c
  9076  00186A  26D9               	addwf	fsr2l,f,c
  9077  00186C  5020               	movf	_pBDTEntryEP0OutCurrent+1,w,c
  9078  00186E  22DA               	addwfc	fsr2h,f,c
  9079  001870  0E08               	movlw	8
  9080  001872  6EDF               	movwf	indf2,c
  9081                           
  9082                           ; BSR set to: 0
  9083                           ;usb_device.c: 1464: pBDTEntryEP0OutCurrent->ADR = ((uint16_t)(&SetupPkt));
  9084  001874  EE20 F002          	lfsr	2,2
  9085  001878  501F               	movf	_pBDTEntryEP0OutCurrent,w,c
  9086  00187A  26D9               	addwf	fsr2l,f,c
  9087  00187C  5020               	movf	_pBDTEntryEP0OutCurrent+1,w,c
  9088  00187E  22DA               	addwfc	fsr2h,f,c
  9089  001880  0E20               	movlw	32
  9090  001882  6EDE               	movwf	postinc2,c
  9091  001884  0E02               	movlw	2
  9092  001886  6EDD               	movwf	postdec2,c
  9093                           
  9094                           ; BSR set to: 0
  9095                           ;usb_device.c: 1465: pBDTEntryEP0OutCurrent->STAT.Val = 0x04;
  9096  001888  C01F  FFD9         	movff	_pBDTEntryEP0OutCurrent,fsr2l
  9097  00188C  C020  FFDA         	movff	_pBDTEntryEP0OutCurrent+1,fsr2h
  9098  001890  0E04               	movlw	4
  9099  001892  6EDF               	movwf	indf2,c
  9100                           
  9101                           ; BSR set to: 0
  9102                           ;usb_device.c: 1466: pBDTEntryEP0OutCurrent->STAT.Val |= 0x80;
  9103  001894  C01F  FFD9         	movff	_pBDTEntryEP0OutCurrent,fsr2l
  9104  001898  C020  FFDA         	movff	_pBDTEntryEP0OutCurrent+1,fsr2h
  9105  00189C  0E00               	movlw	0
  9106  00189E  8EDB               	bsf	plusw2,7,c
  9107                           
  9108                           ; BSR set to: 0
  9109                           ;usb_device.c: 1467: BothEP0OutUOWNsSet = 1;
  9110  0018A0  0E01               	movlw	1
  9111  0018A2  0100               	movlb	0	; () banked
  9112  0018A4  6F84               	movwf	_BothEP0OutUOWNsSet& (0+255),b	;volatile
  9113                           
  9114                           ; BSR set to: 0
  9115                           ;usb_device.c: 1471: pBDTEntryEP0OutNext->CNT = 8;
  9116  0018A6  EE20 F001          	lfsr	2,1
  9117  0018AA  5021               	movf	_pBDTEntryEP0OutNext,w,c
  9118  0018AC  26D9               	addwf	fsr2l,f,c
  9119  0018AE  5022               	movf	_pBDTEntryEP0OutNext+1,w,c
  9120  0018B0  22DA               	addwfc	fsr2h,f,c
  9121  0018B2  0E08               	movlw	8
  9122  0018B4  6EDF               	movwf	indf2,c
  9123                           
  9124                           ; BSR set to: 0
  9125                           ;usb_device.c: 1472: pBDTEntryEP0OutNext->ADR = ((uint16_t)(&SetupPkt));
  9126  0018B6  EE20 F002          	lfsr	2,2
  9127  0018BA  5021               	movf	_pBDTEntryEP0OutNext,w,c
  9128  0018BC  26D9               	addwf	fsr2l,f,c
  9129  0018BE  5022               	movf	_pBDTEntryEP0OutNext+1,w,c
  9130  0018C0  22DA               	addwfc	fsr2h,f,c
  9131  0018C2  0E20               	movlw	32
  9132  0018C4  6EDE               	movwf	postinc2,c
  9133  0018C6  0E02               	movlw	2
  9134  0018C8  6EDD               	movwf	postdec2,c
  9135                           
  9136                           ; BSR set to: 0
  9137                           ;usb_device.c: 1473: pBDTEntryEP0OutNext->STAT.Val = 0x80;
  9138  0018CA  C021  FFD9         	movff	_pBDTEntryEP0OutNext,fsr2l
  9139  0018CE  C022  FFDA         	movff	_pBDTEntryEP0OutNext+1,fsr2h
  9140  0018D2  0E80               	movlw	128
  9141  0018D4  6EDF               	movwf	indf2,c
  9142                           
  9143                           ; BSR set to: 0
  9144                           
  9145                           ; BSR set to: 0
  9146                           
  9147                           ; BSR set to: 0
  9148  0018D6  0012               	return	
  9149  0018D8                     __end_of_USBCtrlEPAllowStatusStage:
  9150                           	opt stack 0
  9151                           tosu	equ	0xFFF
  9152                           tosh	equ	0xFFE
  9153                           tosl	equ	0xFFD
  9154                           pclatu	equ	0xFFB
  9155                           pclath	equ	0xFFA
  9156                           tblptru	equ	0xFF8
  9157                           tblptrh	equ	0xFF7
  9158                           tblptrl	equ	0xFF6
  9159                           tablat	equ	0xFF5
  9160                           prodh	equ	0xFF4
  9161                           prodl	equ	0xFF3
  9162                           intcon	equ	0xFF2
  9163                           postinc0	equ	0xFEE
  9164                           fsr0h	equ	0xFEA
  9165                           fsr0l	equ	0xFE9
  9166                           wreg	equ	0xFE8
  9167                           indf1	equ	0xFE7
  9168                           postinc1	equ	0xFE6
  9169                           postdec1	equ	0xFE5
  9170                           plusw1	equ	0xFE3
  9171                           fsr1h	equ	0xFE2
  9172                           fsr1l	equ	0xFE1
  9173                           indf2	equ	0xFDF
  9174                           postinc2	equ	0xFDE
  9175                           postdec2	equ	0xFDD
  9176                           plusw2	equ	0xFDB
  9177                           fsr2h	equ	0xFDA
  9178                           fsr2l	equ	0xFD9
  9179                           status	equ	0xFD8
  9180                           
  9181 ;; *************** function _USBCtrlTrfInHandler *****************
  9182 ;; Defined at:
  9183 ;;		line 2609 in file "usb_device.c"
  9184 ;; Parameters:    Size  Location     Type
  9185 ;;		None
  9186 ;; Auto vars:     Size  Location     Type
  9187 ;;  lastDTS         1    1[COMRAM] unsigned char 
  9188 ;; Return value:  Size  Location     Type
  9189 ;;                  1    wreg      void 
  9190 ;; Registers used:
  9191 ;;		wreg, fsr1l, fsr1h, fsr2l, fsr2h, status,2, status,0, pclat, tosl, tblptrl, tblptrh, tblptru, cstack
  9192 ;; Tracked objects:
  9193 ;;		On entry : 0/0
  9194 ;;		On exit  : 0/0
  9195 ;;		Unchanged: 0/0
  9196 ;; Data sizes:     COMRAM   BANK0   BANK1 BANK2hh BANK2hl
  9197 ;;      Params:         0       0       0       0       0
  9198 ;;      Locals:         1       0       0       0       0
  9199 ;;      Temps:          0       0       0       0       0
  9200 ;;      Totals:         1       0       0       0       0
  9201 ;;Total ram usage:        1 bytes
  9202 ;; Hardware stack levels used:    1
  9203 ;; Hardware stack levels required when called:    1
  9204 ;; This function calls:
  9205 ;;		_USBCtrlTrfTxService
  9206 ;;		_USBHIDCBSetReportComplete
  9207 ;; This function is called by:
  9208 ;;		_USBCtrlEPService
  9209 ;; This function uses a non-reentrant model
  9210 ;;
  9211                           
  9212                           	psect	text41
  9213  00149C                     __ptext41:
  9214                           	opt stack 0
  9215  00149C                     _USBCtrlTrfInHandler:
  9216                           	opt stack 24
  9217                           
  9218                           ;usb_device.c: 2611: uint8_t lastDTS;
  9219                           ;usb_device.c: 2613: lastDTS = pBDTEntryIn[0]->STAT.DTS;
  9220                           
  9221                           ; BSR set to: 0
  9222                           ;incstack = 0
  9223  00149C  C015  FFD9         	movff	_pBDTEntryIn,fsr2l
  9224  0014A0  C016  FFDA         	movff	_pBDTEntryIn+1,fsr2h
  9225  0014A4  0E00               	movlw	0
  9226  0014A6  BCDF               	btfsc	indf2,6,c
  9227  0014A8  0E01               	movlw	1
  9228  0014AA  6E2C               	movwf	USBCtrlTrfInHandler@lastDTS,c
  9229                           
  9230                           ;usb_device.c: 2616: ((uint8_t_VAL*)&pBDTEntryIn[0])->Val ^= 0x0004;
  9231  0014AC  0E04               	movlw	4
  9232  0014AE  1A15               	xorwf	_pBDTEntryIn,f,c
  9233                           
  9234                           ;usb_device.c: 2621: if(USBDeviceState == ADR_PENDING_STATE)
  9235  0014B0  0E08               	movlw	8
  9236  0014B2  1824               	xorwf	_USBDeviceState,w,c	;volatile
  9237  0014B4  A4D8               	btfss	status,2,c
  9238  0014B6  D00D               	goto	i2l3417
  9239                           
  9240                           ;usb_device.c: 2622: {
  9241                           ;usb_device.c: 2623: UADDR = (SetupPkt.bDevADR & 0x7F);
  9242  0014B8  0102               	movlb	2	; () banked
  9243  0014BA  5122               	movf	34,w,b	;volatile
  9244  0014BC  0B7F               	andlw	127
  9245  0014BE  010F               	movlb	15	; () banked
  9246  0014C0  6F5C               	movwf	92,b	;volatile
  9247                           
  9248                           ; BSR set to: 15
  9249                           ;usb_device.c: 2624: if(UADDR != 0u)
  9250  0014C2  010F               	movlb	15	; () banked
  9251  0014C4  515C               	movf	92,w,b	;volatile
  9252  0014C6  B4D8               	btfsc	status,2,c
  9253  0014C8  D002               	goto	i2l3415
  9254                           
  9255                           ; BSR set to: 15
  9256                           ;usb_device.c: 2625: {
  9257                           ;usb_device.c: 2626: USBDeviceState=ADDRESS_STATE;
  9258  0014CA  0E10               	movlw	16
  9259  0014CC  D001               	goto	L14
  9260  0014CE                     i2l3415:
  9261                           
  9262                           ; BSR set to: 15
  9263                           ;usb_device.c: 2628: else
  9264                           ;usb_device.c: 2629: {
  9265                           ;usb_device.c: 2630: USBDeviceState=DEFAULT_STATE;
  9266  0014CE  0E04               	movlw	4
  9267  0014D0                     L14:
  9268  0014D0  6E24               	movwf	_USBDeviceState,c	;volatile
  9269  0014D2                     i2l3417:
  9270                           
  9271                           ;usb_device.c: 2631: }
  9272                           ;usb_device.c: 2632: }
  9273                           ;usb_device.c: 2635: if(controlTransferState == 1)
  9274  0014D2  0425               	decf	_controlTransferState,w,c	;volatile
  9275  0014D4  A4D8               	btfss	status,2,c
  9276  0014D6  D03A               	goto	i2l588
  9277                           
  9278                           ;usb_device.c: 2636: {
  9279                           ;usb_device.c: 2637: pBDTEntryIn[0]->ADR = ((uint16_t)(CtrlTrfData));
  9280  0014D8  EE20 F002          	lfsr	2,2
  9281  0014DC  5015               	movf	_pBDTEntryIn,w,c
  9282  0014DE  26D9               	addwf	fsr2l,f,c
  9283  0014E0  5016               	movf	_pBDTEntryIn+1,w,c
  9284  0014E2  22DA               	addwfc	fsr2h,f,c
  9285  0014E4  0E28               	movlw	40
  9286  0014E6  6EDE               	movwf	postinc2,c
  9287  0014E8  0E02               	movlw	2
  9288  0014EA  6EDD               	movwf	postdec2,c
  9289                           
  9290                           ;usb_device.c: 2638: USBCtrlTrfTxService();
  9291  0014EC  EC6C  F00C         	call	_USBCtrlTrfTxService	;wreg free
  9292                           
  9293                           ;usb_device.c: 2644: if(shortPacketStatus == 2)
  9294  0014F0  0E02               	movlw	2
  9295  0014F2  1827               	xorwf	_shortPacketStatus,w,c	;volatile
  9296  0014F4  A4D8               	btfss	status,2,c
  9297  0014F6  D00D               	goto	i2l3429
  9298                           
  9299                           ;usb_device.c: 2645: {
  9300                           ;usb_device.c: 2648: pBDTEntryIn[0]->STAT.Val = 0x04;
  9301  0014F8  C015  FFD9         	movff	_pBDTEntryIn,fsr2l
  9302  0014FC  C016  FFDA         	movff	_pBDTEntryIn+1,fsr2h
  9303  001500  0E04               	movlw	4
  9304  001502  6EDF               	movwf	indf2,c
  9305                           
  9306                           ;usb_device.c: 2649: pBDTEntryIn[0]->STAT.Val |= 0x80;
  9307  001504  C015  FFD9         	movff	_pBDTEntryIn,fsr2l
  9308  001508  C016  FFDA         	movff	_pBDTEntryIn+1,fsr2h
  9309  00150C  0E00               	movlw	0
  9310  00150E  8EDB               	bsf	plusw2,7,c
  9311                           
  9312                           ;usb_device.c: 2650: }
  9313  001510  0012               	return	
  9314  001512                     i2l3429:
  9315                           
  9316                           ;usb_device.c: 2651: else
  9317                           ;usb_device.c: 2652: {
  9318                           ;usb_device.c: 2653: if(lastDTS == 0)
  9319  001512  502C               	movf	USBCtrlTrfInHandler@lastDTS,w,c
  9320  001514  A4D8               	btfss	status,2,c
  9321  001516  D00D               	goto	i2l3435
  9322                           
  9323                           ;usb_device.c: 2654: {
  9324                           ;usb_device.c: 2655: pBDTEntryIn[0]->STAT.Val = 0x40|(0x08 & 0x08);
  9325  001518  C015  FFD9         	movff	_pBDTEntryIn,fsr2l
  9326  00151C  C016  FFDA         	movff	_pBDTEntryIn+1,fsr2h
  9327  001520  0E48               	movlw	72
  9328  001522  6EDF               	movwf	indf2,c
  9329                           
  9330                           ;usb_device.c: 2656: pBDTEntryIn[0]->STAT.Val |= 0x80;
  9331  001524  C015  FFD9         	movff	_pBDTEntryIn,fsr2l
  9332  001528  C016  FFDA         	movff	_pBDTEntryIn+1,fsr2h
  9333  00152C  0E00               	movlw	0
  9334  00152E  8EDB               	bsf	plusw2,7,c
  9335                           
  9336                           ;usb_device.c: 2657: }
  9337  001530  0012               	return	
  9338  001532                     i2l3435:
  9339                           
  9340                           ;usb_device.c: 2658: else
  9341                           ;usb_device.c: 2659: {
  9342                           ;usb_device.c: 2660: pBDTEntryIn[0]->STAT.Val = 0x00|(0x08 & 0x08);
  9343  001532  C015  FFD9         	movff	_pBDTEntryIn,fsr2l
  9344  001536  C016  FFDA         	movff	_pBDTEntryIn+1,fsr2h
  9345  00153A  0E08               	movlw	8
  9346  00153C  6EDF               	movwf	indf2,c
  9347                           
  9348                           ;usb_device.c: 2661: pBDTEntryIn[0]->STAT.Val |= 0x80;
  9349  00153E  C015  FFD9         	movff	_pBDTEntryIn,fsr2l
  9350  001542  C016  FFDA         	movff	_pBDTEntryIn+1,fsr2h
  9351  001546  0E00               	movlw	0
  9352  001548  8EDB               	bsf	plusw2,7,c
  9353                           
  9354                           ;usb_device.c: 2662: }
  9355                           ;usb_device.c: 2663: }
  9356                           ;usb_device.c: 2664: }
  9357  00154A  0012               	return	
  9358  00154C                     i2l588:
  9359                           
  9360                           ;usb_device.c: 2665: else
  9361                           ;usb_device.c: 2666: {
  9362                           ;usb_device.c: 2670: if(outPipes[0].info.bits.busy == 1)
  9363  00154C  AE04               	btfss	_outPipes+3,7,c	;volatile
  9364  00154E  D013               	goto	i2l3445
  9365                           
  9366                           ;usb_device.c: 2671: {
  9367                           ;usb_device.c: 2672: if(outPipes[0].pFunc != (0))
  9368  001550  5007               	movf	_outPipes+6,w,c	;volatile
  9369  001552  1008               	iorwf	_outPipes+7,w,c	;volatile
  9370  001554  B4D8               	btfsc	status,2,c
  9371  001556  D00E               	goto	i2l3443
  9372                           
  9373                           ;usb_device.c: 2673: {
  9374                           ;usb_device.c: 2674: outPipes[0].pFunc();
  9375  001558  EE20  F007         	lfsr	2,_outPipes+6	;volatile
  9376  00155C  D801               	call	i2u302_48
  9377  00155E  D00A               	goto	i2l3443
  9378  001560                     i2u302_48:
  9379  001560  0005               	push	
  9380  001562  6EFA               	movwf	pclath,c
  9381  001564  50DE               	movf	postinc2,w,c
  9382  001566  6EFD               	movwf	tosl,c
  9383  001568  50DE               	movf	postinc2,w,c
  9384  00156A  6EFE               	movwf	tosh,c
  9385  00156C  50F8               	movf	tblptru,w,c
  9386  00156E  6EFF               	movwf	tosu,c
  9387  001570  50FA               	movf	pclath,w,c
  9388  001572  0012               	return		;indir
  9389  001574                     i2l3443:
  9390                           
  9391                           ;usb_device.c: 2675: }
  9392                           ;usb_device.c: 2676: outPipes[0].info.bits.busy = 0;
  9393  001574  9E04               	bcf	_outPipes+3,7,c	;volatile
  9394  001576                     i2l3445:
  9395                           
  9396                           ;usb_device.c: 2677: }
  9397                           ;usb_device.c: 2679: controlTransferState = 0;
  9398  001576  0E00               	movlw	0
  9399  001578  6E25               	movwf	_controlTransferState,c	;volatile
  9400  00157A  0012               	return	
  9401  00157C                     __end_of_USBCtrlTrfInHandler:
  9402                           	opt stack 0
  9403                           tosu	equ	0xFFF
  9404                           tosh	equ	0xFFE
  9405                           tosl	equ	0xFFD
  9406                           pclatu	equ	0xFFB
  9407                           pclath	equ	0xFFA
  9408                           tblptru	equ	0xFF8
  9409                           tblptrh	equ	0xFF7
  9410                           tblptrl	equ	0xFF6
  9411                           tablat	equ	0xFF5
  9412                           prodh	equ	0xFF4
  9413                           prodl	equ	0xFF3
  9414                           intcon	equ	0xFF2
  9415                           postinc0	equ	0xFEE
  9416                           fsr0h	equ	0xFEA
  9417                           fsr0l	equ	0xFE9
  9418                           wreg	equ	0xFE8
  9419                           indf1	equ	0xFE7
  9420                           postinc1	equ	0xFE6
  9421                           postdec1	equ	0xFE5
  9422                           plusw1	equ	0xFE3
  9423                           fsr1h	equ	0xFE2
  9424                           fsr1l	equ	0xFE1
  9425                           indf2	equ	0xFDF
  9426                           postinc2	equ	0xFDE
  9427                           postdec2	equ	0xFDD
  9428                           plusw2	equ	0xFDB
  9429                           fsr2h	equ	0xFDA
  9430                           fsr2l	equ	0xFD9
  9431                           status	equ	0xFD8
  9432                           
  9433 ;; *************** function _USBHIDCBSetReportComplete *****************
  9434 ;; Defined at:
  9435 ;;		line 682 in file "app_device_keyboard.c"
  9436 ;; Parameters:    Size  Location     Type
  9437 ;;		None
  9438 ;; Auto vars:     Size  Location     Type
  9439 ;;		None
  9440 ;; Return value:  Size  Location     Type
  9441 ;;                  1    wreg      void 
  9442 ;; Registers used:
  9443 ;;		None
  9444 ;; Tracked objects:
  9445 ;;		On entry : 0/0
  9446 ;;		On exit  : 0/0
  9447 ;;		Unchanged: 0/0
  9448 ;; Data sizes:     COMRAM   BANK0   BANK1 BANK2hh BANK2hl
  9449 ;;      Params:         0       0       0       0       0
  9450 ;;      Locals:         0       0       0       0       0
  9451 ;;      Temps:          0       0       0       0       0
  9452 ;;      Totals:         0       0       0       0       0
  9453 ;;Total ram usage:        0 bytes
  9454 ;; Hardware stack levels used:    1
  9455 ;; This function calls:
  9456 ;;		Nothing
  9457 ;; This function is called by:
  9458 ;;		_USBHIDCBSetReportHandler
  9459 ;;		_USBCtrlTrfRxService
  9460 ;;		_USBCtrlTrfInHandler
  9461 ;; This function uses a non-reentrant model
  9462 ;;
  9463                           
  9464                           	psect	text42
  9465  0021AE                     __ptext42:
  9466                           	opt stack 0
  9467  0021AE                     _USBHIDCBSetReportComplete:
  9468                           	opt stack 23
  9469                           
  9470                           ;incstack = 0
  9471  0021AE  0012               	return		;funcret
  9472  0021B0                     __end_of_USBHIDCBSetReportComplete:
  9473                           	opt stack 0
  9474                           tosu	equ	0xFFF
  9475                           tosh	equ	0xFFE
  9476                           tosl	equ	0xFFD
  9477                           pclatu	equ	0xFFB
  9478                           pclath	equ	0xFFA
  9479                           tblptru	equ	0xFF8
  9480                           tblptrh	equ	0xFF7
  9481                           tblptrl	equ	0xFF6
  9482                           tablat	equ	0xFF5
  9483                           prodh	equ	0xFF4
  9484                           prodl	equ	0xFF3
  9485                           intcon	equ	0xFF2
  9486                           postinc0	equ	0xFEE
  9487                           fsr0h	equ	0xFEA
  9488                           fsr0l	equ	0xFE9
  9489                           wreg	equ	0xFE8
  9490                           indf1	equ	0xFE7
  9491                           postinc1	equ	0xFE6
  9492                           postdec1	equ	0xFE5
  9493                           plusw1	equ	0xFE3
  9494                           fsr1h	equ	0xFE2
  9495                           fsr1l	equ	0xFE1
  9496                           indf2	equ	0xFDF
  9497                           postinc2	equ	0xFDE
  9498                           postdec2	equ	0xFDD
  9499                           plusw2	equ	0xFDB
  9500                           fsr2h	equ	0xFDA
  9501                           fsr2l	equ	0xFD9
  9502                           status	equ	0xFD8
  9503                           
  9504 ;; *************** function _USBCtrlTrfTxService *****************
  9505 ;; Defined at:
  9506 ;;		line 1789 in file "usb_device.c"
  9507 ;; Parameters:    Size  Location     Type
  9508 ;;		None
  9509 ;; Auto vars:     Size  Location     Type
  9510 ;;  byteToSend      1    0[COMRAM] unsigned char 
  9511 ;; Return value:  Size  Location     Type
  9512 ;;                  1    wreg      void 
  9513 ;; Registers used:
  9514 ;;		wreg, fsr1l, fsr1h, fsr2l, fsr2h, status,2, status,0, tblptrl, tblptrh, tblptru
  9515 ;; Tracked objects:
  9516 ;;		On entry : 0/0
  9517 ;;		On exit  : 0/0
  9518 ;;		Unchanged: 0/0
  9519 ;; Data sizes:     COMRAM   BANK0   BANK1 BANK2hh BANK2hl
  9520 ;;      Params:         0       0       0       0       0
  9521 ;;      Locals:         1       0       0       0       0
  9522 ;;      Temps:          0       0       0       0       0
  9523 ;;      Totals:         1       0       0       0       0
  9524 ;;Total ram usage:        1 bytes
  9525 ;; Hardware stack levels used:    1
  9526 ;; This function calls:
  9527 ;;		Nothing
  9528 ;; This function is called by:
  9529 ;;		_USBCtrlEPAllowDataStage
  9530 ;;		_USBCtrlTrfInHandler
  9531 ;; This function uses a non-reentrant model
  9532 ;;
  9533                           
  9534                           	psect	text43
  9535  0018D8                     __ptext43:
  9536                           	opt stack 0
  9537  0018D8                     _USBCtrlTrfTxService:
  9538                           	opt stack 22
  9539                           
  9540                           ;usb_device.c: 1791: uint8_t byteToSend;
  9541                           ;usb_device.c: 1795: byteToSend = 8;
  9542                           
  9543                           ;incstack = 0
  9544  0018D8  0E08               	movlw	8
  9545  0018DA  6E2B               	movwf	USBCtrlTrfTxService@byteToSend,c
  9546                           
  9547                           ;usb_device.c: 1796: if(inPipes[0].wCount.Val < (uint8_t)8)
  9548  0018DC  500E               	movf	_inPipes+5,w,c	;volatile
  9549  0018DE  E110               	bnz	i2l2941
  9550  0018E0  0E08               	movlw	8
  9551  0018E2  5C0D               	subwf	_inPipes+4,w,c	;volatile
  9552  0018E4  B0D8               	btfsc	status,0,c
  9553  0018E6  D00C               	goto	i2l2941
  9554                           
  9555                           ;usb_device.c: 1797: {
  9556                           ;usb_device.c: 1798: byteToSend = inPipes[0].wCount.Val;
  9557  0018E8  C00D  F02B         	movff	_inPipes+4,USBCtrlTrfTxService@byteToSend	;volatile
  9558                           
  9559                           ;usb_device.c: 1805: if(shortPacketStatus == 0)
  9560  0018EC  5027               	movf	_shortPacketStatus,w,c	;volatile
  9561  0018EE  A4D8               	btfss	status,2,c
  9562  0018F0  D002               	goto	i2l2937
  9563                           
  9564                           ;usb_device.c: 1806: {
  9565                           ;usb_device.c: 1807: shortPacketStatus = 1;
  9566  0018F2  0E01               	movlw	1
  9567  0018F4  D004               	goto	L15
  9568  0018F6                     i2l2937:
  9569                           
  9570                           ;usb_device.c: 1809: else if(shortPacketStatus == 1)
  9571  0018F6  0427               	decf	_shortPacketStatus,w,c	;volatile
  9572  0018F8  A4D8               	btfss	status,2,c
  9573  0018FA  D002               	goto	i2l2941
  9574                           
  9575                           ;usb_device.c: 1810: {
  9576                           ;usb_device.c: 1811: shortPacketStatus = 2;
  9577  0018FC  0E02               	movlw	2
  9578  0018FE                     L15:
  9579  0018FE  6E27               	movwf	_shortPacketStatus,c	;volatile
  9580  001900                     i2l2941:
  9581                           
  9582                           ;usb_device.c: 1812: }
  9583                           ;usb_device.c: 1813: }
  9584                           ;usb_device.c: 1817: inPipes[0].wCount.Val -= byteToSend;
  9585  001900  502B               	movf	USBCtrlTrfTxService@byteToSend,w,c
  9586  001902  5E0D               	subwf	_inPipes+4,f,c	;volatile
  9587  001904  0E00               	movlw	0
  9588  001906  5A0E               	subwfb	_inPipes+5,f,c	;volatile
  9589                           
  9590                           ;usb_device.c: 1822: pBDTEntryIn[0]->CNT = byteToSend;
  9591  001908  EE20 F001          	lfsr	2,1
  9592  00190C  5015               	movf	_pBDTEntryIn,w,c
  9593  00190E  26D9               	addwf	fsr2l,f,c
  9594  001910  5016               	movf	_pBDTEntryIn+1,w,c
  9595  001912  22DA               	addwfc	fsr2h,f,c
  9596  001914  C02B  FFDF         	movff	USBCtrlTrfTxService@byteToSend,indf2
  9597                           
  9598                           ;usb_device.c: 1826: pDst = (volatile uint8_t*)CtrlTrfData;
  9599  001918  0E28               	movlw	40
  9600  00191A  0100               	movlb	0	; () banked
  9601  00191C  6F82               	movwf	_pDst& (0+255),b
  9602  00191E  0E02               	movlw	2
  9603  001920  0100               	movlb	0	; () banked
  9604  001922  6F83               	movwf	(_pDst+1)& (0+255),b
  9605                           
  9606                           ; BSR set to: 0
  9607                           ;usb_device.c: 1827: if(inPipes[0].info.bits.ctrl_trf_mem == 0x00)
  9608  001924  A00C               	btfss	_inPipes+3,0,c	;volatile
  9609  001926  D01C               	goto	i2l2959
  9610  001928  D03A               	goto	i2l2969
  9611  00192A                     i2l2951:
  9612                           
  9613                           ; BSR set to: 0
  9614                           ;usb_device.c: 1830: {
  9615                           ;usb_device.c: 1831: *pDst++ = *inPipes[0].pSrc.bRom++;
  9616  00192A  C009  FFF6         	movff	_inPipes,tblptrl	;volatile
  9617  00192E  C00A  FFF7         	movff	_inPipes+1,tblptrh	;volatile
  9618  001932  6AF8               	clrf	tblptru,c
  9619  001934  C082  FFD9         	movff	_pDst,fsr2l
  9620  001938  C083  FFDA         	movff	_pDst+1,fsr2h
  9621  00193C  0E02               	movlw	(high __ramtop+-1)
  9622  00193E  64F7               	cpfsgt	tblptrh,c
  9623  001940  D003               	bra	i2u234_47
  9624  001942  0008               	tblrd		*
  9625  001944  50F5               	movf	tablat,w,c
  9626  001946  D005               	bra	i2u234_40
  9627  001948                     i2u234_47:
  9628  001948  CFF6 FFE1          	movff	tblptrl,fsr1l
  9629  00194C  CFF7 FFE2          	movff	tblptrh,fsr1h
  9630  001950  50E7               	movf	indf1,w,c
  9631  001952                     i2u234_40:
  9632  001952  6EDF               	movwf	indf2,c
  9633  001954  4A09               	infsnz	_inPipes,f,c	;volatile
  9634  001956  2A0A               	incf	_inPipes+1,f,c	;volatile
  9635  001958  0100               	movlb	0	; () banked
  9636  00195A  4B82               	infsnz	_pDst& (0+255),f,b
  9637  00195C  2B83               	incf	(_pDst+1)& (0+255),f,b
  9638                           
  9639                           ; BSR set to: 0
  9640                           ;usb_device.c: 1832: byteToSend--;
  9641  00195E  062B               	decf	USBCtrlTrfTxService@byteToSend,f,c
  9642  001960                     i2l2959:
  9643                           
  9644                           ; BSR set to: 0
  9645  001960  502B               	movf	USBCtrlTrfTxService@byteToSend,w,c
  9646  001962  B4D8               	btfsc	status,2,c
  9647  001964  0012               	return	
  9648  001966  D7E1               	goto	i2l2951
  9649  001968                     i2l2961:
  9650                           
  9651                           ; BSR set to: 0
  9652                           ;usb_device.c: 1838: {
  9653                           ;usb_device.c: 1839: *pDst++ = *inPipes[0].pSrc.bRam++;
  9654  001968  C009  FFF6         	movff	_inPipes,tblptrl	;volatile
  9655  00196C  C00A  FFF7         	movff	_inPipes+1,tblptrh	;volatile
  9656  001970  6AF8               	clrf	tblptru,c
  9657  001972  C082  FFD9         	movff	_pDst,fsr2l
  9658  001976  C083  FFDA         	movff	_pDst+1,fsr2h
  9659  00197A  0E02               	movlw	(high __ramtop+-1)
  9660  00197C  64F7               	cpfsgt	tblptrh,c
  9661  00197E  D003               	bra	i2u236_47
  9662  001980  0008               	tblrd		*
  9663  001982  50F5               	movf	tablat,w,c
  9664  001984  D005               	bra	i2u236_40
  9665  001986                     i2u236_47:
  9666  001986  CFF6 FFE1          	movff	tblptrl,fsr1l
  9667  00198A  CFF7 FFE2          	movff	tblptrh,fsr1h
  9668  00198E  50E7               	movf	indf1,w,c
  9669  001990                     i2u236_40:
  9670  001990  6EDF               	movwf	indf2,c
  9671  001992  4A09               	infsnz	_inPipes,f,c	;volatile
  9672  001994  2A0A               	incf	_inPipes+1,f,c	;volatile
  9673  001996  0100               	movlb	0	; () banked
  9674  001998  4B82               	infsnz	_pDst& (0+255),f,b
  9675  00199A  2B83               	incf	(_pDst+1)& (0+255),f,b
  9676                           
  9677                           ; BSR set to: 0
  9678                           ;usb_device.c: 1840: byteToSend--;
  9679  00199C  062B               	decf	USBCtrlTrfTxService@byteToSend,f,c
  9680  00199E                     i2l2969:
  9681                           
  9682                           ; BSR set to: 0
  9683  00199E  502B               	movf	USBCtrlTrfTxService@byteToSend,w,c
  9684  0019A0  B4D8               	btfsc	status,2,c
  9685  0019A2  0012               	return	
  9686  0019A4  D7E1               	goto	i2l2961
  9687  0019A6                     __end_of_USBCtrlTrfTxService:
  9688                           	opt stack 0
  9689                           tosu	equ	0xFFF
  9690                           tosh	equ	0xFFE
  9691                           tosl	equ	0xFFD
  9692                           pclatu	equ	0xFFB
  9693                           pclath	equ	0xFFA
  9694                           tblptru	equ	0xFF8
  9695                           tblptrh	equ	0xFF7
  9696                           tblptrl	equ	0xFF6
  9697                           tablat	equ	0xFF5
  9698                           prodh	equ	0xFF4
  9699                           prodl	equ	0xFF3
  9700                           intcon	equ	0xFF2
  9701                           postinc0	equ	0xFEE
  9702                           fsr0h	equ	0xFEA
  9703                           fsr0l	equ	0xFE9
  9704                           wreg	equ	0xFE8
  9705                           indf1	equ	0xFE7
  9706                           postinc1	equ	0xFE6
  9707                           postdec1	equ	0xFE5
  9708                           plusw1	equ	0xFE3
  9709                           fsr1h	equ	0xFE2
  9710                           fsr1l	equ	0xFE1
  9711                           indf2	equ	0xFDF
  9712                           postinc2	equ	0xFDE
  9713                           postdec2	equ	0xFDD
  9714                           plusw2	equ	0xFDB
  9715                           fsr2h	equ	0xFDA
  9716                           fsr2l	equ	0xFD9
  9717                           status	equ	0xFD8
  9718                           tosu	equ	0xFFF
  9719                           tosh	equ	0xFFE
  9720                           tosl	equ	0xFFD
  9721                           pclatu	equ	0xFFB
  9722                           pclath	equ	0xFFA
  9723                           tblptru	equ	0xFF8
  9724                           tblptrh	equ	0xFF7
  9725                           tblptrl	equ	0xFF6
  9726                           tablat	equ	0xFF5
  9727                           prodh	equ	0xFF4
  9728                           prodl	equ	0xFF3
  9729                           intcon	equ	0xFF2
  9730                           postinc0	equ	0xFEE
  9731                           fsr0h	equ	0xFEA
  9732                           fsr0l	equ	0xFE9
  9733                           wreg	equ	0xFE8
  9734                           indf1	equ	0xFE7
  9735                           postinc1	equ	0xFE6
  9736                           postdec1	equ	0xFE5
  9737                           plusw1	equ	0xFE3
  9738                           fsr1h	equ	0xFE2
  9739                           fsr1l	equ	0xFE1
  9740                           indf2	equ	0xFDF
  9741                           postinc2	equ	0xFDE
  9742                           postdec2	equ	0xFDD
  9743                           plusw2	equ	0xFDB
  9744                           fsr2h	equ	0xFDA
  9745                           fsr2l	equ	0xFD9
  9746                           status	equ	0xFD8
  9747                           
  9748                           	psect	text44
  9749  000000                     __ptext44:
  9750                           	opt stack 0
  9751                           tosu	equ	0xFFF
  9752                           tosh	equ	0xFFE
  9753                           tosl	equ	0xFFD
  9754                           pclatu	equ	0xFFB
  9755                           pclath	equ	0xFFA
  9756                           tblptru	equ	0xFF8
  9757                           tblptrh	equ	0xFF7
  9758                           tblptrl	equ	0xFF6
  9759                           tablat	equ	0xFF5
  9760                           prodh	equ	0xFF4
  9761                           prodl	equ	0xFF3
  9762                           intcon	equ	0xFF2
  9763                           postinc0	equ	0xFEE
  9764                           fsr0h	equ	0xFEA
  9765                           fsr0l	equ	0xFE9
  9766                           wreg	equ	0xFE8
  9767                           indf1	equ	0xFE7
  9768                           postinc1	equ	0xFE6
  9769                           postdec1	equ	0xFE5
  9770                           plusw1	equ	0xFE3
  9771                           fsr1h	equ	0xFE2
  9772                           fsr1l	equ	0xFE1
  9773                           indf2	equ	0xFDF
  9774                           postinc2	equ	0xFDE
  9775                           postdec2	equ	0xFDD
  9776                           plusw2	equ	0xFDB
  9777                           fsr2h	equ	0xFDA
  9778                           fsr2l	equ	0xFD9
  9779                           status	equ	0xFD8
  9780                           
  9781                           	psect	rparam
  9782  0000                     tosu	equ	0xFFF
  9783                           tosh	equ	0xFFE
  9784                           tosl	equ	0xFFD
  9785                           pclatu	equ	0xFFB
  9786                           pclath	equ	0xFFA
  9787                           tblptru	equ	0xFF8
  9788                           tblptrh	equ	0xFF7
  9789                           tblptrl	equ	0xFF6
  9790                           tablat	equ	0xFF5
  9791                           prodh	equ	0xFF4
  9792                           prodl	equ	0xFF3
  9793                           intcon	equ	0xFF2
  9794                           postinc0	equ	0xFEE
  9795                           fsr0h	equ	0xFEA
  9796                           fsr0l	equ	0xFE9
  9797                           wreg	equ	0xFE8
  9798                           indf1	equ	0xFE7
  9799                           postinc1	equ	0xFE6
  9800                           postdec1	equ	0xFE5
  9801                           plusw1	equ	0xFE3
  9802                           fsr1h	equ	0xFE2
  9803                           fsr1l	equ	0xFE1
  9804                           indf2	equ	0xFDF
  9805                           postinc2	equ	0xFDE
  9806                           postdec2	equ	0xFDD
  9807                           plusw2	equ	0xFDB
  9808                           fsr2h	equ	0xFDA
  9809                           fsr2l	equ	0xFD9
  9810                           status	equ	0xFD8
  9811                           
  9812                           	psect	temp
  9813  000055                     btemp:
  9814                           	opt stack 0
  9815  000055                     	ds	1
  9816  0000                     int$flags	set	btemp
  9817                           tosu	equ	0xFFF
  9818                           tosh	equ	0xFFE
  9819                           tosl	equ	0xFFD
  9820                           pclatu	equ	0xFFB
  9821                           pclath	equ	0xFFA
  9822                           tblptru	equ	0xFF8
  9823                           tblptrh	equ	0xFF7
  9824                           tblptrl	equ	0xFF6
  9825                           tablat	equ	0xFF5
  9826                           prodh	equ	0xFF4
  9827                           prodl	equ	0xFF3
  9828                           intcon	equ	0xFF2
  9829                           postinc0	equ	0xFEE
  9830                           fsr0h	equ	0xFEA
  9831                           fsr0l	equ	0xFE9
  9832                           wreg	equ	0xFE8
  9833                           indf1	equ	0xFE7
  9834                           postinc1	equ	0xFE6
  9835                           postdec1	equ	0xFE5
  9836                           plusw1	equ	0xFE3
  9837                           fsr1h	equ	0xFE2
  9838                           fsr1l	equ	0xFE1
  9839                           indf2	equ	0xFDF
  9840                           postinc2	equ	0xFDE
  9841                           postdec2	equ	0xFDD
  9842                           plusw2	equ	0xFDB
  9843                           fsr2h	equ	0xFDA
  9844                           fsr2l	equ	0xFD9
  9845                           status	equ	0xFD8


Data Sizes:
    Strings     0
    Constant    210
    Data        36
    BSS         89
    Persistent  0
    Stack       0

Auto Spaces:
    Space          Size  Autos    Used
    COMRAM           94     42      84
    BANK0           160     14      97
    BANK1           256      0       0
    BANK2hh         176      0       0
    BANK2hl          16      0       0

Pointer List with Targets:

    USER_USB_CALLBACK_EVENT_HANDLER@pdata	PTR void  size(2) Largest target is 32
		 -> USTATcopy(COMRAM[1]), USBActiveConfiguration(COMRAM[1]), BDT(BIGRAMll[32]), NULL(NULL[0]), 

    memset@p1	PTR void  size(2) Largest target is 32
		 -> USBAlternateInterface(COMRAM[1]), BDT(BIGRAMll[32]), UEP1(SFR[1]), inputReport(BIGRAMhl[8]), 

    memset@p	PTR unsigned char  size(2) Largest target is 32
		 -> USBAlternateInterface(COMRAM[1]), BDT(BIGRAMll[32]), UEP1(SFR[1]), inputReport(BIGRAMhl[8]), 

    memcpy@d1	PTR void  size(2) Largest target is 8
		 -> SetupPkt(ABS[8]), 

    memcpy@d	PTR unsigned char  size(2) Largest target is 8
		 -> SetupPkt(ABS[8]), 

    memcpy@s1	PTR const void  size(2) Largest target is 767
		 -> RAM(DATA[767]), SetupPkt(ABS[8]), CtrlTrfData(BIGRAMll[8]), inputReport(BIGRAMhl[8]), 
		 -> outputReport(BIGRAMhh[8]), 

    memcpy@s	PTR const unsigned char  size(2) Largest target is 767
		 -> RAM(DATA[767]), SetupPkt(ABS[8]), CtrlTrfData(BIGRAMll[8]), inputReport(BIGRAMhl[8]), 
		 -> outputReport(BIGRAMhh[8]), 

    USBStdFeatureReqHandler@pUEP	PTR unsigned char  size(2) Largest target is 1
		 -> UEP0(SFR[1]), 

    USBStdFeatureReqHandler@p	PTR struct __BDT size(2) Largest target is 32
		 -> BDT(BIGRAMll[32]), NULL(NULL[0]), 

    sp__memcpy	PTR void  size(2) Largest target is 8
		 -> SetupPkt(ABS[8]), 

    USBStdGetStatusHandler@p	PTR struct __BDT size(2) Largest target is 32
		 -> BDT(BIGRAMll[32]), NULL(NULL[0]), 

    pDst	PTR volatile unsigned char  size(2) Largest target is 8
		 -> CtrlTrfData(BIGRAMll[8]), NULL(NULL[0]), 

    USBConfigureEndpoint@handle	PTR volatile struct __BDT size(2) Largest target is 32
		 -> BDT(BIGRAMll[32]), 

    pBDTEntryEP0OutCurrent	PTR volatile struct __BDT size(2) Largest target is 32
		 -> BDT(BIGRAMll[32]), NULL(NULL[0]), 

    pBDTEntryEP0OutNext	PTR volatile struct __BDT size(2) Largest target is 32
		 -> BDT(BIGRAMll[32]), NULL(NULL[0]), 

    USBTransferOnePacket@data	PTR unsigned char  size(2) Largest target is 8
		 -> inputReport(BIGRAMhl[8]), outputReport(BIGRAMhh[8]), 

    USBTransferOnePacket@handle	PTR volatile struct __BDT size(2) Largest target is 32
		 -> BDT(BIGRAMll[32]), NULL(NULL[0]), 

    USBEnableEndpoint@p	PTR unsigned char  size(2) Largest target is 1
		 -> UEP0(SFR[1]), 

    pBDTEntryOut	PTR volatile struct __BDT[2] size(2) Largest target is 32
		 -> BDT(BIGRAMll[32]), NULL(NULL[0]), 

    pBDTEntryIn	PTR volatile struct __BDT[2] size(2) Largest target is 32
		 -> BDT(BIGRAMll[32]), NULL(NULL[0]), 

    S739$wRom	PTR const unsigned int  size(2) Largest target is 0

    inPipes.pSrc.wRom	PTR const unsigned int  size(2) Largest target is 0

    S739$wRam	PTR unsigned int  size(2) Largest target is 0

    inPipes.pSrc.wRam	PTR unsigned int  size(2) Largest target is 0

    S739$bRom	PTR const unsigned char  size(2) Largest target is 0

    inPipes.pSrc.bRom	PTR const unsigned char  size(2) Largest target is 0

    S739$bRam	PTR unsigned char  size(2) Largest target is 0

    inPipes.pSrc.bRam	PTR unsigned char  size(2) Largest target is 0

    USB_SD_Ptr	const PTR const unsigned char [3] size(2) Largest target is 52
		 -> sd002(CODE[24]), sd001(CODE[52]), sd000(CODE[4]), 

    USB_CD_Ptr	const PTR const unsigned char [1] size(2) Largest target is 41
		 -> configDescriptor1(CODE[41]), 

    S169$pFunc	PTR FTN()void  size(2) Largest target is 1
		 -> USBHIDCBSetReportComplete(), 

    outPipes.pFunc	PTR FTN()void  size(2) Largest target is 1
		 -> USBHIDCBSetReportComplete(), 

    S152$wRam	PTR unsigned int  size(2) Largest target is 0

    outPipes.pDst.wRam	PTR unsigned int  size(2) Largest target is 0

    S152$bRam	PTR unsigned char  size(2) Largest target is 0

    outPipes.pDst.bRam	PTR unsigned char  size(2) Largest target is 0

    sp__memset	PTR void  size(2) Largest target is 32
		 -> USBAlternateInterface(COMRAM[1]), BDT(BIGRAMll[32]), UEP1(SFR[1]), inputReport(BIGRAMhl[8]), 

    sp__USBTransferOnePacket	PTR void  size(2) Largest target is 32
		 -> BDT(BIGRAMll[32]), NULL(NULL[0]), 

    S23$lastOUTTransmission	PTR void  size(2) Largest target is 32
		 -> BDT(BIGRAMll[32]), NULL(NULL[0]), 

    keyboard.lastOUTTransmission	PTR void  size(2) Largest target is 32
		 -> BDT(BIGRAMll[32]), NULL(NULL[0]), 

    S23$lastINTransmission	PTR void  size(2) Largest target is 32
		 -> BDT(BIGRAMll[32]), NULL(NULL[0]), 

    keyboard.lastINTransmission	PTR void  size(2) Largest target is 32
		 -> BDT(BIGRAMll[32]), NULL(NULL[0]), 


Critical Paths under _main in COMRAM

    None.

Critical Paths under _SYS_InterruptHigh in COMRAM

    _SYS_InterruptHigh->_USBDeviceTasks
    _USBDeviceTasks->_USBCtrlEPService
    i2_USBDeviceInit->i2_memset
    _USBWakeFromSuspend->_USER_USB_CALLBACK_EVENT_HANDLER
    _USBSuspend->_USER_USB_CALLBACK_EVENT_HANDLER
    _USBCtrlEPAllowDataStage->_USBCtrlTrfTxService
    _USBCheckStdRequest->_USBStdFeatureReqHandler
    _USBStdSetCfgHandler->_USER_USB_CALLBACK_EVENT_HANDLER
    _USBStdFeatureReqHandler->_USER_USB_CALLBACK_EVENT_HANDLER
    _USBCheckHIDRequest->_USBHIDCBSetIdleRateHandler
    _APP_KeyboardInit->_USBEnableEndpoint
    _USBEnableEndpoint->_USBConfigureEndpoint
    _USBCtrlTrfOutHandler->_USBCtrlTrfRxService
    _USBCtrlTrfInHandler->_USBCtrlTrfTxService

Critical Paths under _main in BANK0

    _main->_APP_KeyboardTasks
    _USBDeviceInit->_memset
    _APP_KeyboardTasks->_memset

Critical Paths under _SYS_InterruptHigh in BANK0

    None.

Critical Paths under _main in BANK1

    None.

Critical Paths under _SYS_InterruptHigh in BANK1

    None.

Critical Paths under _main in BANK2hh

    None.

Critical Paths under _SYS_InterruptHigh in BANK2hh

    None.

Critical Paths under _main in BANK2hl

    None.

Critical Paths under _SYS_InterruptHigh in BANK2hl

    None.

Call Graph Tables:

 ---------------------------------------------------------------------------------
 (Depth) Function   	        Calls       Base Space   Used Autos Params    Refs
 ---------------------------------------------------------------------------------
 (0) _main                                                 0     0      0    4710
                  _APP_KeyboardTasks
                   _BUTTON_IsPressed
                  _SYSTEM_Initialize
                    _USBDeviceAttach
                      _USBDeviceInit
 ---------------------------------------------------------------------------------
 (1) _USBDeviceInit                                        1     1      0    1673
                                              8 BANK0      1     1      0
                             _memset
 ---------------------------------------------------------------------------------
 (1) _USBDeviceAttach                                      0     0      0       0
 ---------------------------------------------------------------------------------
 (1) _SYSTEM_Initialize                                    1     1      0      22
                                              0 BANK0      1     1      0
                      _BUTTON_Enable
 ---------------------------------------------------------------------------------
 (2) _BUTTON_Enable                                        1     1      0       0
 ---------------------------------------------------------------------------------
 (1) _APP_KeyboardTasks                                    6     6      0    2984
                                              8 BANK0      6     6      0
    _APP_KeyboardProcessOutputReport
                   _BUTTON_IsPressed
               _USBTransferOnePacket
                             _memset
 ---------------------------------------------------------------------------------
 (2) _memset                                               8     2      6    1382
                                              0 BANK0      8     2      6
 ---------------------------------------------------------------------------------
 (2) _USBTransferOnePacket                                 7     3      4    1302
                                              0 BANK0      7     3      4
 ---------------------------------------------------------------------------------
 (1) _BUTTON_IsPressed                                     1     1      0      31
                                              0 BANK0      1     1      0
 ---------------------------------------------------------------------------------
 (2) _APP_KeyboardProcessOutputReport                      0     0      0       0
 ---------------------------------------------------------------------------------
 Estimated maximum stack depth 2
 ---------------------------------------------------------------------------------
 (Depth) Function   	        Calls       Base Space   Used Autos Params    Refs
 ---------------------------------------------------------------------------------
 (3) _SYS_InterruptHigh                                   14    14      0   29598
                                             28 COMRAM    14    14      0
                     _USBDeviceTasks
 ---------------------------------------------------------------------------------
 (4) _USBDeviceTasks                                       1     1      0   29598
                                             27 COMRAM     1     1      0
          _USBCtrlEPAllowStatusStage
                   _USBCtrlEPService
      _USBIncrement1msInternalTimers
                    _USBStallHandler
                         _USBSuspend
                 _USBWakeFromSuspend
    _USER_USB_CALLBACK_EVENT_HANDLER
                    i2_USBDeviceInit
 ---------------------------------------------------------------------------------
 (5) i2_USBDeviceInit                                      1     1      0     610
                                              8 COMRAM     1     1      0
                           i2_memset
 ---------------------------------------------------------------------------------
 (5) _USBWakeFromSuspend                                   0     0      0    3901
    _USER_USB_CALLBACK_EVENT_HANDLER
 ---------------------------------------------------------------------------------
 (5) _USBSuspend                                           0     0      0    3901
    _USER_USB_CALLBACK_EVENT_HANDLER
 ---------------------------------------------------------------------------------
 (5) _USBStallHandler                                      1     1      0       0
                                              0 COMRAM     1     1      0
 ---------------------------------------------------------------------------------
 (5) _USBIncrement1msInternalTimers                        0     0      0       0
 ---------------------------------------------------------------------------------
 (5) _USBCtrlEPService                                     1     1      0   17239
                                             26 COMRAM     1     1      0
                _USBCtrlTrfInHandler
               _USBCtrlTrfOutHandler
             _USBCtrlTrfSetupHandler
                             _memcpy
 ---------------------------------------------------------------------------------
 (6) _memcpy                                              10     4      6     387
                                              0 COMRAM    10     4      6
 ---------------------------------------------------------------------------------
 (6) _USBCtrlTrfSetupHandler                               0     0      0   16623
                 _USBCheckStdRequest
           _USBCtrlEPServiceComplete
    _USER_USB_CALLBACK_EVENT_HANDLER
 ---------------------------------------------------------------------------------
 (7) _USBCtrlEPServiceComplete                             0     0      0      92
            _USBCtrlEPAllowDataStage
          _USBCtrlEPAllowStatusStage
 ---------------------------------------------------------------------------------
 (8) _USBCtrlEPAllowDataStage                              0     0      0      92
                _USBCtrlTrfTxService
 ---------------------------------------------------------------------------------
 (7) _USBCheckStdRequest                                   0     0      0   12630
            _USBStdFeatureReqHandler
                _USBStdGetDscHandler
             _USBStdGetStatusHandler
                _USBStdSetCfgHandler
    _USER_USB_CALLBACK_EVENT_HANDLER
 ---------------------------------------------------------------------------------
 (8) _USBStdSetCfgHandler                                  1     1      0    4399
                                             20 COMRAM     1     1      0
    _USER_USB_CALLBACK_EVENT_HANDLER
                           i2_memset
 ---------------------------------------------------------------------------------
 (6) i2_memset                                             8     2      6     408
                                              0 COMRAM     8     2      6
 ---------------------------------------------------------------------------------
 (8) _USBStdGetStatusHandler                               3     3      0      46
                                              0 COMRAM     3     3      0
 ---------------------------------------------------------------------------------
 (8) _USBStdGetDscHandler                                  2     2      0       0
                                              0 COMRAM     2     2      0
 ---------------------------------------------------------------------------------
 (8) _USBStdFeatureReqHandler                              6     6      0    4284
                                             20 COMRAM     6     6      0
    _USER_USB_CALLBACK_EVENT_HANDLER
 ---------------------------------------------------------------------------------
 (5) _USER_USB_CALLBACK_EVENT_HANDLER                      8     2      6    3901
                                             12 COMRAM     8     2      6
                   _APP_KeyboardInit
                 _USBCheckHIDRequest
                i2_SYSTEM_Initialize
 ---------------------------------------------------------------------------------
 (6) i2_SYSTEM_Initialize                                  1     1      0      22
                                              0 COMRAM     1     1      0
                    i2_BUTTON_Enable
 ---------------------------------------------------------------------------------
 (7) i2_BUTTON_Enable                                      1     1      0       0
 ---------------------------------------------------------------------------------
 (6) _USBCheckHIDRequest                                   0     0      0     133
         _USBHIDCBSetIdleRateHandler
           _USBHIDCBSetReportHandler
 ---------------------------------------------------------------------------------
 (7) _USBHIDCBSetReportHandler                             0     0      0       0
 ---------------------------------------------------------------------------------
 (7) _USBHIDCBSetIdleRateHandler                           2     1      1     133
                                              0 COMRAM     2     1      1
 ---------------------------------------------------------------------------------
 (6) _APP_KeyboardInit                                     0     0      0    1054
                  _USBEnableEndpoint
             i2_USBTransferOnePacket
 ---------------------------------------------------------------------------------
 (7) i2_USBTransferOnePacket                               7     3      4     410
                                              0 COMRAM     7     3      4
 ---------------------------------------------------------------------------------
 (7) _USBEnableEndpoint                                    4     3      1     644
                                              8 COMRAM     4     3      1
               _USBConfigureEndpoint
 ---------------------------------------------------------------------------------
 (8) _USBConfigureEndpoint                                 8     7      1     400
                                              0 COMRAM     8     7      1
 ---------------------------------------------------------------------------------
 (6) _USBCtrlTrfOutHandler                                 0     0      0     114
                _USBCtrlTrfRxService
 ---------------------------------------------------------------------------------
 (7) _USBCtrlTrfRxService                                  2     2      0     114
                                              0 COMRAM     2     2      0
          _USBCtrlEPAllowStatusStage
          _USBHIDCBSetReportComplete *
 ---------------------------------------------------------------------------------
 (8) _USBCtrlEPAllowStatusStage                            0     0      0       0
 ---------------------------------------------------------------------------------
 (6) _USBCtrlTrfInHandler                                  1     1      0     115
                                              1 COMRAM     1     1      0
                _USBCtrlTrfTxService
          _USBHIDCBSetReportComplete *
 ---------------------------------------------------------------------------------
 (8) _USBHIDCBSetReportComplete                            0     0      0       0
 ---------------------------------------------------------------------------------
 (9) _USBCtrlTrfTxService                                  1     1      0      92
                                              0 COMRAM     1     1      0
 ---------------------------------------------------------------------------------
 Estimated maximum stack depth 9
 ---------------------------------------------------------------------------------

 Call Graph Graphs:

 _main (ROOT)
   _APP_KeyboardTasks
     _APP_KeyboardProcessOutputReport
     _BUTTON_IsPressed
     _USBTransferOnePacket
     _memset
   _BUTTON_IsPressed
   _SYSTEM_Initialize
     _BUTTON_Enable
   _USBDeviceAttach
   _USBDeviceInit
     _memset

 _SYS_InterruptHigh (ROOT)
   _USBDeviceTasks
     _USBCtrlEPAllowStatusStage
     _USBCtrlEPService
       _USBCtrlTrfInHandler
         _USBCtrlTrfTxService
         _USBHIDCBSetReportComplete *
       _USBCtrlTrfOutHandler
         _USBCtrlTrfRxService
           _USBCtrlEPAllowStatusStage
           _USBHIDCBSetReportComplete *
       _USBCtrlTrfSetupHandler
         _USBCheckStdRequest
           _USBStdFeatureReqHandler
             _USER_USB_CALLBACK_EVENT_HANDLER
               _APP_KeyboardInit
                 _USBEnableEndpoint
                   _USBConfigureEndpoint
                 i2_USBTransferOnePacket
               _USBCheckHIDRequest
                 _USBHIDCBSetIdleRateHandler
                 _USBHIDCBSetReportHandler
               i2_SYSTEM_Initialize
                 i2_BUTTON_Enable
           _USBStdGetDscHandler
           _USBStdGetStatusHandler
           _USBStdSetCfgHandler
             _USER_USB_CALLBACK_EVENT_HANDLER
               _APP_KeyboardInit
                 _USBEnableEndpoint
                   _USBConfigureEndpoint
                 i2_USBTransferOnePacket
               _USBCheckHIDRequest
                 _USBHIDCBSetIdleRateHandler
                 _USBHIDCBSetReportHandler
               i2_SYSTEM_Initialize
                 i2_BUTTON_Enable
             i2_memset
           _USER_USB_CALLBACK_EVENT_HANDLER
             _APP_KeyboardInit
               _USBEnableEndpoint
                 _USBConfigureEndpoint
               i2_USBTransferOnePacket
             _USBCheckHIDRequest
               _USBHIDCBSetIdleRateHandler
               _USBHIDCBSetReportHandler
             i2_SYSTEM_Initialize
               i2_BUTTON_Enable
         _USBCtrlEPServiceComplete
           _USBCtrlEPAllowDataStage
             _USBCtrlTrfTxService
           _USBCtrlEPAllowStatusStage
         _USER_USB_CALLBACK_EVENT_HANDLER
           _APP_KeyboardInit
             _USBEnableEndpoint
               _USBConfigureEndpoint
             i2_USBTransferOnePacket
           _USBCheckHIDRequest
             _USBHIDCBSetIdleRateHandler
             _USBHIDCBSetReportHandler
           i2_SYSTEM_Initialize
             i2_BUTTON_Enable
       _memcpy
     _USBIncrement1msInternalTimers
     _USBStallHandler
     _USBSuspend
       _USER_USB_CALLBACK_EVENT_HANDLER
         _APP_KeyboardInit
           _USBEnableEndpoint
             _USBConfigureEndpoint
           i2_USBTransferOnePacket
         _USBCheckHIDRequest
           _USBHIDCBSetIdleRateHandler
           _USBHIDCBSetReportHandler
         i2_SYSTEM_Initialize
           i2_BUTTON_Enable
     _USBWakeFromSuspend
       _USER_USB_CALLBACK_EVENT_HANDLER
         _APP_KeyboardInit
           _USBEnableEndpoint
             _USBConfigureEndpoint
           i2_USBTransferOnePacket
         _USBCheckHIDRequest
           _USBHIDCBSetIdleRateHandler
           _USBHIDCBSetReportHandler
         i2_SYSTEM_Initialize
           i2_BUTTON_Enable
     _USER_USB_CALLBACK_EVENT_HANDLER
       _APP_KeyboardInit
         _USBEnableEndpoint
           _USBConfigureEndpoint
         i2_USBTransferOnePacket
       _USBCheckHIDRequest
         _USBHIDCBSetIdleRateHandler
         _USBHIDCBSetReportHandler
       i2_SYSTEM_Initialize
         i2_BUTTON_Enable
     i2_USBDeviceInit
       i2_memset

 Address spaces:
Name               Size   Autos  Total    Cost      Usage
BIGRAMll           1FF      0       0      14        0.0%
EEDATA             100      0       0       0        0.0%
BITBANK1           100      0       0       9        0.0%
BANK1              100      0       0       5        0.0%
BIGRAMhh            B0      0       0      12        0.0%
BITBANK2hh          B0      0       0      10        0.0%
BANK2hh             B0      0       0       6        0.0%
BITBANK0            A0      0       0       3        0.0%
BANK0               A0      E      61       4       60.6%
BITCOMRAM           5E      0       0       0        0.0%
COMRAM              5E     2A      54       1       89.4%
BIGRAMhl            10      0       0      13        0.0%
BITBANK2hl          10      0       0      11        0.0%
BANK2hl             10      0       0       7        0.0%
BITSFR_1             0      0       0      40        0.0%
SFR_1                0      0       0      40        0.0%
BITSFR               0      0       0      40        0.0%
SFR                  0      0       0      40        0.0%
STACK                0      0       0       2        0.0%
NULL                 0      0       0       0        0.0%
ABS                  0      0      B5       8        0.0%
DATA                 0      0      B5      15        0.0%
CODE                 0      0       0       0        0.0%


Microchip Technology PIC18 Macro Assembler V1.37 build -260352376 
Symbol Table                                                                                   Wed May  4 13:25:42 2016

                                _USB_SD_Ptr 0301                                          l54 03D6  
                                        l63 04DC                                          l56 0456  
                                        l73 0564                                          l57 0480  
                                        l83 05EC                                          l68 0520  
                                        l93 0674                                          l78 05A8  
                                        l88 0630                                          l98 06B8  
                             _USBDeviceInit 0B70                          _USBCheckHIDRequest 13B0  
          __end_of_USBHIDCBSetReportHandler 2176                                __CFG_CP0$OFF 000000  
                              __CFG_CP1$OFF 000000        USER_USB_CALLBACK_EVENT_HANDLER@event 0037  
      USER_USB_CALLBACK_EVENT_HANDLER@pdata 0039                                         l103 06FC  
                                       l120 07E8                                         l113 0784  
                                       l201 20BC                                         l108 0740  
                                       l118 07C8                                         l160 12C6  
                                       l170 1332                                         l162 12D2  
                                       l171 133E                                         l163 12DE  
                                       l172 134A                                         l164 12EA  
                                       l165 12F6                 __end_of_USBStdGetDscHandler 11C0  
                                       l166 1302                                         l167 130E  
                                       l168 131A                                         l169 1326  
                                       l452 2040                                         l453 203E  
                                       l392 0BE4                                         _BDT 000200  
                              __CFG_CPB$OFF 000000                                         _UIE 000F60  
                                       _UIR 000F62                                  _USBSuspend 204A  
                              __CFG_BORV$30 000000                        USBStdSetCfgHandler@i 003F  
                                       prod 000FF3                                         tosl 000FFD  
                                       wreg 000FE8                              _USBDeviceTasks 0E3A  
                       ?_USBCheckHIDRequest 002B                                __CFG_FOSC$HS 000000  
                            _USBDeviceState 0024                               _BUTTON_Enable 2188  
                     ??_USBCtrlTrfRxService 002B                    __size_ofi2_USBDeviceInit 0156  
                  USBEnableEndpoint@options 0033                                __CFG_LVP$OFF 000000  
                                      l4105 1784                                        l4203 056C  
                USBConfigureEndpoint@handle 0031                                        l4133 1356  
                                      l4117 17EA                                        l4125 1FEE  
                                      l4301 0748                                        l4221 05C8  
                                      l4205 0580                                        l4303 075C  
                                      l4231 05F4                                        l4207 0584  
                                      l4129 2000                                        l4305 0760  
                                      l4233 0608                                        l4217 05B0  
                                      l4153 03DE                                        l4139 135A  
                                      l4331 07E4                                        l4315 078C  
                                      l4235 060C                                        l4219 05C4  
                                      l4163 0494                                        l4341 0832  
                                      l4333 07F4                                        l4317 07A0  
                                      l4261 0690                                        l4245 0638  
                                      l4351 086A                                        l4319 07A4  
                                      l4263 0694                                        l4247 064C  
                                      l4191 053C                                        l4175 04E4  
                                      l4423 0C34                                        l4407 0BF0  
                                      l4097 1750                                        l4345 0838  
                                      l4337 07FE                                        l4329 07D0  
                                      l4273 06C0                                        l4249 0650  
                                      l4193 0540                                        l4177 04F8  
                                      l4363 08C6                                        l4291 071C  
                                      l4275 06D4                                        l4259 067C  
                                      l4179 04FC                                        l4371 2120  
                                      l4419 0C2A                                        l4277 06D8  
                                      l4189 0528                                        l4429 0C9A  
                                      l4287 0704                                        l4359 08B2  
                                      l4375 2128                                        l4391 0BBA  
                                      l4289 0718                                        l4395 0BC4  
                                      l4475 20C8                                        l4469 20B4  
                     ??i2_SYSTEM_Initialize 002B                                        u5021 087C  
                                      u4310 12CE                                        u4410 130A  
                                      u4330 12DA                                        u4510 1346  
                                      u4430 1316                                        u4350 12E6  
                                      u5207 0684                                        u5217 06C8  
                                      u4530 1352                                        u4450 1322  
                                      u4370 12F2                                        u5227 070C  
                                      u5147 04EC                                        u5237 0750  
                                      u5157 0530                                        u4470 132E  
                                      u4390 12FE                                        u5247 0794  
                                      u5167 0574                                        u5257 07D8  
                                      u5177 05B8                                        u4490 133A  
                                      u5187 05FC                                        u5197 0640  
                     ??_USBCtrlTrfTxService 002B                                        i2l48 1E02  
                                      _UCFG 000F61                                        _UEP0 000F53  
                                      _UEP1 000F54                                        _UEIE 000F5B  
                                      _UCON 000F64                                        _UEIR 000F5F  
    USBStdFeatureReqHandler@current_ep_data 0042                                        _pDst 0082  
                                      _main 20A6                    ??i2_USBTransferOnePacket 002F  
                                      fsr0h 000FEA                                        fsr1h 000FE2  
                                      fsr0l 000FE9                                        fsr2h 000FDA  
                                      indf1 000FE7                                        fsr1l 000FE1  
                                      indf2 000FDF                                        fsr2l 000FD9  
                           _USBDeviceAttach 2018                                        btemp 0055  
                                      pclat 000FFA                                        prodh 000FF4  
                                      prodl 000FF3                                        start 0082  
                  __size_ofi2_BUTTON_Enable 0010                               __CFG_IESO$OFF 000000  
                      ??_USBCheckHIDRequest 002D                  __end_of_USBCheckStdRequest 1732  
                    ??_USBCtrlTrfOutHandler 002D                               _LocalSOFCount 007C  
                              ___param_bank 000010                   ??_USBStdFeatureReqHandler 003F  
                  ??_USBStdGetStatusHandler 002B                              ?_USBDeviceInit 002B  
                             __CFG_PLLEN$ON 000000                                       ?_main 002B  
         __size_of_USBCtrlEPServiceComplete 0100                                       _ANSEL 000F7E  
                    __end_of_USBDeviceTasks 0F70                   ?_USBCtrlEPServiceComplete 002B  
                                     i2l403 0E62                                       i2l413 0EF8  
                                     i2l414 0F6C                                       i2l415 0F08  
                                     i2l602 1668                                       i2l611 16B6  
                                     i2l540 1A6E                                       i2l543 1AFC  
                                     i2l544 1A82                                       i2l392 0D48  
                                     i2l617 091C                                       i2l545 1A86  
                                     i2l553 1F2E                                       i2l636 0ADE  
                                     i2l477 123C                                       i2l588 154C  
                                     _UADDR 000F5C                              __CFG_BBSIZ$OFF 000000  
                                     _TRISB 000F93                                       _TRISC 000F94  
                                     _USTAT 000F63                                _outputReport 000248  
                             __CFG_WRT0$OFF 000000          __size_of_USBCtrlEPAllowStatusStage 00CE  
                             __CFG_WRT1$OFF 000000          __end_of_USBHIDCBSetIdleRateHandler 2188  
                            __CFG_EBTR0$OFF 000000                              __CFG_FCMEN$OFF 000000  
                _USBHIDCBSetIdleRateHandler 2176                              ?_BUTTON_Enable 002B  
                            __CFG_EBTR1$OFF 000000             __end_of_USBCtrlEPAllowDataStage 1BAC  
                                     _sd000 03CF                                       _sd001 0348  
                                     _sd002 03A5                               __CFG_WRTB$OFF 000000  
            ?_USBIncrement1msInternalTimers 002B                               __CFG_WRTC$OFF 000000  
                            __CFG_EBTRB$OFF 000000                                  i2memset@p1 002B  
                 __size_of_BUTTON_IsPressed 00F0                              __CFG_BOREN$OFF 000000  
                                     pclath 000FFA                                       tablat 000FF5  
                                     plusw1 000FE3                                       plusw2 000FDB  
                                     status 000FD8                            __end_ofi2_memset 20A6  
              __size_of_USBStdSetCfgHandler 00DC                              __CFG_MCLRE$OFF 000000  
                           __initialization 1EA6                                __end_of_main 20CE  
                 __size_of_USBCtrlEPService 0092                                      ??_main 00C1  
                             __activetblptr 000002                             ?_USBDeviceTasks 002B  
                               ?_USBSuspend 002B                    _USBHIDCBSetReportHandler 215A  
                   __end_of_USBDeviceAttach 204A                                      _ANSELH 000F7F  
                    SYSTEM_Initialize@state 00B3                                      i2l3103 11A8  
                                    i2l3023 1B62                                      i2l3211 0B3E  
                                    i2l3115 1AA4                                      i2l3043 15BC  
                                    i2l3027 1B7A                                      i2l4003 0EEE  
                                    i2l3213 0B4A                                      i2l3205 0AFA  
                                    i2l3125 1AE4                                      i2l3053 15F0  
                                    i2l3143 0916                                      i2l3047 15C4  
                                    i2l4031 0F68                                      i2l4023 0F2E  
                                    i2l3401 1E9E                                      i2l3081 10C2  
                                    i2l3321 1670                                      i2l4009 0F00  
                                    i2l3163 09D4                                      i2l3091 114C  
                                    i2l3323 1676                                      i2l3309 1092  
                                    i2l3181 0A5E                                      i2l3165 09D6  
                                    i2l3157 0990                                      i2l3077 10B0  
                                    i2l3069 1636                                      i2l3333 168E  
                                    i2l3325 167C                                      i2l3229 11E6  
                                    i2l4029 0F4C                              __CFG_WDTEN$OFF 000000  
                                    i2l3415 14CE                                      i2l3335 1694  
                                    i2l3351 16EE                                      i2l3511 1FD8  
                                    i2l3417 14D2                                      i2l3185 0A78  
                                    i2l3169 09F2                                      i2l3097 119C  
                                    i2l3089 1146                                      i2l3337 169A  
                                    i2l3249 1268                                      i2l3361 1F60  
                                    i2l3601 0D54                                      i2l3443 1574  
                                    i2l3435 1532                                      i2l3283 0FBE  
                                    i2l2811 1A42                                      i2l3195 0ABE  
                                    i2l3179 0A44                                      i2l3099 11A2  
                                    i2l3347 16D0                                      i2l3355 1F44  
                                    i2l3445 1576                                      i2l3429 1512  
                                    i2l3277 0F9C                                      i2l2901 1CD4  
                                    i2l3197 0ACA                                      i2l3509 1FD6  
                                    i2l3613 0D8C                                      i2l3295 1018  
                                    i2l2911 1D00                                      i2l3623 0DF0  
                                    i2l3393 1E54                                      i2l2753 1C0E  
                                    i2l2825 1E0A                                      i2l2841 13D0  
                                    i2l2913 1D06                                      i2l2905 1CE6  
                                    i2l3617 0D94                                      i2l3299 1032  
                                    i2l2763 1F82                                      i2l2907 1CF0  
                                    i2l3547 1F2A                                      i2l2941 1900  
                                    i2l4517 1D24                                      i2l2909 1CF8  
                                    i2l2917 1D0C                                      i2l3565 1CBC  
                                    i2l2951 192A                                      i2l2767 1F90  
                                    i2l2791 19BC                                      i2l2871 143C  
                                    i2l2863 1420                                      i2l2847 13E6  
                                    i2l4519 1D58                                      i2l3567 1CC2  
                                    i2l2961 1968                                      i2l2937 18F6  
                                    i2l2865 1426                                      i2l2849 13EC  
                                    i2l2857 13FE                                      i2l3585 0D24  
                                    i2l2883 1468                                      i2l2859 1410  
                                    i2l2877 1452                                      i2l2893 2140  
                                    i2l2973 2084                                      i2l3589 0D2C  
                                    i2l2959 1960                                      i2l2799 19E6  
                                    i2l3951 0E5A                                      i2l3943 0E4E  
                                    i2l2969 199E                                      i2l2993 1858  
                                    i2l2889 1472                                      i2l2897 2148  
                                    i2l2977 2094                                      i2l3971 0E7E  
                                    i2l3965 0E74                                      i2l3985 0EB4  
                                    i2l3977 0EA2                                      i2l3995 0EC8  
                                    i2l3989 0EBE                    i2USBTransferOnePacket@ep 002F  
                         ??i2_USBDeviceInit 0033             __size_ofi2_USBTransferOnePacket 00BA  
                         _shortPacketStatus 0027                              __CFG_XINST$OFF 000000  
                          _APP_KeyboardInit 1DE6                             USBDeviceTasks@i 0046  
               USBStdFeatureReqHandler@pUEP 0040                    USBTransferOnePacket@data 00B4  
                USBCtrlTrfInHandler@lastDTS 002C                             ??_USBDeviceInit 00BB  
                            __CFG_STVREN$ON 000000                           ??i2_BUTTON_Enable 002B  
                         _USBEnableEndpoint 1F72             __size_of_USBStdGetStatusHandler 00B0  
                                    _memcpy 1F32                                      _memset 1FE4  
                                    clear_0 1EAC                                      clear_1 1EB8  
                        ?_USBEnableEndpoint 0033               __size_of_USBTransferOnePacket 00D8  
                           ??_BUTTON_Enable 00B3                                __mediumconst 0000  
                                    tblptrh 000FF7                                      tblptrl 000FF6  
                                    tblptru 000FF8                                 _OldSOFCount 007E  
                       ??_USBEnableEndpoint 0034                          APP_KeyboardTasks@i 00C0  
                               _CtrlTrfData 000228                             __CFG_HFOFST$OFF 000000  
        USBHIDCBSetIdleRateHandler@reportID 002C                        _controlTransferState 0025  
                         _SYSTEM_Initialize 211A                                  __accesstop 0060  
                   __end_of__initialization 1EDE                          ?_SYSTEM_Initialize 002B  
                             ___rparam_used 000001                    __size_of_USBStallHandler 0046  
                       __size_of_USBSuspend 0030                              __pcstackCOMRAM 002B  
                 __end_of_USBEnableEndpoint 1FAE                               __end_of_sd000 03D3  
                             __end_of_sd001 037C                               __end_of_sd002 03BD  
                              __pidataBANK0 20F6                         ??_SYSTEM_Initialize 00B3  
          __size_of_USBCtrlEPAllowDataStage 009C                             _active_protocol 008D  
             __size_of_USBConfigureEndpoint 0094                 __end_of_USBCtrlTrfInHandler 157C  
                    i2_USBTransferOnePacket 19A6                                   ?i2_memset 002B  
                  ??_USBCtrlTrfSetupHandler 0045                     _USBTicksSinceSuspendEnd 008C  
                          ?_USBDeviceAttach 002B                   __end_of_SYSTEM_Initialize 213C  
                          _BUTTON_IsPressed 12C0                      _USBStdGetStatusHandler 1A60  
                                __pbssBANK0 0060                 __size_of_USBWakeFromSuspend 0036  
                               _pBDTEntryIn 0015            __end_of_USBCtrlEPServiceComplete 12C0  
                      USBCtrlTrfRxService@i 002B                                     ?_memcpy 002B  
                                   ?_memset 00B3                                  _device_dsc 03BD  
                          _USBCtrlEPService 1C40                                  _ep_data_in 001B  
               __end_of_USBCtrlTrfRxService 10A0                          _USBCheckStdRequest 1658  
                         _configDescriptor1 037C                 __end_ofi2_SYSTEM_Initialize 215A  
                                ??i2_memset 0031      APP_KeyboardTasks@TimeDeltaMilliseconds 00BE  
               __end_of_USBCtrlTrfTxService 19A6                         _USBStdSetCfgHandler 157C  
               ?_USBHIDCBSetIdleRateHandler 002B                             __CFG_USBDIV$OFF 000000  
                       ?_USBCheckStdRequest 002B                __size_of_USBStdGetDscHandler 0120  
                                   _UIEbits 000F60                                     _UIRbits 000F62  
                           __CFG_PWRTEN$OFF 000000                                     __Hparam 0000  
           ??_USBIncrement1msInternalTimers 002B                        ?_USBStdSetCfgHandler 002B  
               __size_of_USBCheckHIDRequest 00EC                                     __Lparam 0000  
                         _APP_KeyboardTasks 03D4                           __end_of_hid_rpt01 0348  
                __size_of_USBEnableEndpoint 003C                        ??_USBCheckStdRequest 0045  
             __size_of_USBCtrlTrfOutHandler 0060                          ?_APP_KeyboardTasks 002B  
                          ??_USBDeviceTasks 0046                  ??_USBHIDCBSetReportHandler 002B  
                         ??_USBStallHandler 002B                                __psmallconst 0300  
                          _keyboardIdleRate 0080                                     __pcinit 1EA6  
                           __size_of_memcpy 0040                             __size_of_memset 0034  
                 __end_of_configDescriptor1 03A5                                     __ramtop 0300  
                                   __ptext0 20A6                                     __ptext1 0B70  
                                   __ptext2 2018                                     __ptext3 211A  
                                   __ptext4 2188                                     __ptext5 03D4  
                                   __ptext6 1FE4                                     __ptext7 1732  
                                   __ptext8 12C0                                     __ptext9 21A8  
                                   _inPipes 0009                 _USBDeferOUTDataStagePackets 0088  
                       ??_APP_KeyboardTasks 00BB                                     _keyCode 008F  
                              ??_USBSuspend 003F                    __end_of_APP_KeyboardInit 1E46  
                           i2_USBDeviceInit 0CE4                            i2USBDeviceInit@i 0033  
                            _shiftedKeyCode 009B                          __end_of_USB_CD_Ptr 0309  
                __size_of_SYSTEM_Initialize 0022             __size_of_USBCtrlTrfSetupHandler 0088  
                      end_of_initialization 1EDE                          __end_of_USB_SD_Ptr 0307  
                                   memcpy@d 0031                                     memcpy@n 002F  
                                   memcpy@s 0033                         _pBDTEntryEP0OutNext 0021  
                                   memset@c 00B5                                     memset@n 00B7  
                                   memset@p 00B9                               __Lmediumconst 0000  
                           _USB1msTickCount 0074                             i2_BUTTON_Enable 2198  
                  ?_USBStdFeatureReqHandler 002B                   __end_of_APP_KeyboardTasks 08F2  
                     ??_USBStdSetCfgHandler 003F                          __end_of_USBSuspend 207A  
                   _USBCtrlEPAllowDataStage 1B10                                     postdec1 000FE5  
                                   postdec2 000FDD                                     postinc0 000FEE  
                                   postinc1 000FE6                                     postinc2 000FDE  
                  _USBCtrlEPServiceComplete 11C0                  _USBStatusStageEnabledFlag1 0089  
                _USBStatusStageEnabledFlag2 008A                          USBEnableEndpoint@p 0034  
                                 _PORTAbits 000F80                                   _PORTBbits 000F81  
                                 _PORTCbits 000F82                          _BothEP0OutUOWNsSet 0084  
                 USBConfigureEndpoint@EPNum 0030                  ?_USBCtrlEPAllowStatusStage 002B  
       USER_USB_CALLBACK_EVENT_HANDLER@size 003B                                   _USTATcopy 002A  
              __end_of_USBTransferOnePacket 180A                      _USBCtrlTrfSetupHandler 1D5E  
                  __end_of_BUTTON_IsPressed 13B0                     ?i2_USBTransferOnePacket 002B  
                     __end_of_USBDeviceInit 0CE4       __end_of_USBIncrement1msInternalTimers 20F6  
    __size_of_USBIncrement1msInternalTimers 0028               _USBIncrement1msInternalTimers 20CE  
                   __end_ofi2_USBDeviceInit 0E3A                                   i2memset@c 002D  
                                 i2memset@n 002F                                   i2memset@p 0031  
                            __end_of_memcpy 1F72          __size_of_USBHIDCBSetReportComplete 0002  
                            __end_of_memset 2018                  ?_USBHIDCBSetReportComplete 002B  
                         _USBBusIsSuspended 0086                         start_initialization 1EA6  
                   ?_USBStdGetStatusHandler 002B                    i2SYSTEM_Initialize@state 002B  
                     __end_of_BUTTON_Enable 2198               USBCtrlTrfRxService@byteToRead 002C  
                            _oldInputReport 006C                     __end_ofi2_BUTTON_Enable 21A8  
                         __size_ofi2_memset 002C                __end_of_USBConfigureEndpoint 1C40  
           __end_of_USBStdFeatureReqHandler 0B70           __end_of_USBCtrlEPAllowStatusStage 18D8  
                  __end_of_USBCtrlEPService 1CD2                  __size_of_APP_KeyboardTasks 051E  
                 ??_USBCtrlEPAllowDataStage 002C                              USBDeviceInit@i 00BB  
                    _pBDTEntryEP0OutCurrent 001F                     USBTransferOnePacket@dir 00B3  
                   USBTransferOnePacket@len 00B6              __end_ofi2_USBTransferOnePacket 1A60  
                       _USBStdGetDscHandler 10A0                                 __pdataBANK0 008F  
                                  ??_memcpy 0031                                    ??_memset 00B9  
                    BUTTON_IsPressed@button 00B3                      _USBActiveConfiguration 0028  
            __end_of_USBStdGetStatusHandler 1B10           __end_of_USBHIDCBSetReportComplete 21B0  
                               __pbssCOMRAM 0001                               __pcstackBANK0 00B3  
              __size_of_USBCtrlTrfInHandler 00E0                        ?_USBStdGetDscHandler 002B  
   __end_of_APP_KeyboardProcessOutputReport 21AE    __size_of_APP_KeyboardProcessOutputReport 0006  
          ?_APP_KeyboardProcessOutputReport 002B           ??_APP_KeyboardProcessOutputReport 00B3  
           _APP_KeyboardProcessOutputReport 21A8                  __end_of_USBWakeFromSuspend 1FE4  
                           _USBStallHandler 1EEC                                _pBDTEntryOut 0078  
                  __size_of_USBDeviceAttach 0032                                   __pintcode 0008  
                                 _hid_rpt01 0309                                   _idle_rate 008E  
                          ?i2_USBDeviceInit 002B                        _USBTransferOnePacket 1732  
                               __smallconst 0300                __end_of_USBCtrlTrfOutHandler 1EA6  
                         ?_APP_KeyboardInit 002B                       ??_USBStdGetDscHandler 002B  
                               _ep_data_out 001D                            ?i2_BUTTON_Enable 002B  
              __size_of_USBCtrlTrfRxService 0130               USBConfigureEndpoint@direction 002B  
                        ??_APP_KeyboardInit 0037                __size_ofi2_SYSTEM_Initialize 001E  
              __size_of_USBCtrlTrfTxService 00CE                  __end_of_USBCheckHIDRequest 149C  
                ??_USBCtrlEPServiceComplete 002C                                    _IPR2bits 000FA2  
                                  _PIE2bits 000FA0                                    i2u302_48 1560  
                                  i2u234_40 1952                                    i2u250_40 1114  
                                  i2u234_47 1948                                    i2u250_47 110A  
                                  i2u251_40 1142                                    i2u251_47 1138  
                                  i2u236_40 1990                                    i2u236_47 1986  
                                  i2u229_40 1CE0                                    i2u253_40 1192  
                                  i2u253_47 1188                                    _PIR2bits 000FA1  
                                  i2u289_48 107E                                    _RCONbits 000FD0  
                          __CFG_WDTPS$32768 000000                                    _UEP0bits 000F53  
                _USBDeferINDataStagePackets 0087                 __size_of_USBCheckStdRequest 00DA  
                                  _UCONbits 000F64                        _USBConfigureEndpoint 1BAC  
          __size_of_USBStdFeatureReqHandler 027E                       ?_USBTransferOnePacket 00B3  
                         _SYS_InterruptHigh 0008                                _RemoteWakeup 0085  
                                  i2_memset 207A                          ?_SYS_InterruptHigh 002B  
                   __end_of_USBStallHandler 1F32           __size_of_USBHIDCBSetReportHandler 001C  
                 ?_USBHIDCBSetReportHandler 002B                                   copy_data0 1ED2  
               ??_USBCtrlEPAllowStatusStage 002B                 __end_of_USBStdSetCfgHandler 1658  
                               _keyModifire 0060                         ??_SYS_InterruptHigh 0047  
                        __end_of_device_dsc 03CF                     ?_USBCtrlTrfSetupHandler 002B  
                   USBStdGetStatusHandler@p 002C                                    __Hrparam 0000  
                                  __Lrparam 0000                      USBTransferOnePacket@ep 00B7  
                                  _SetupPkt 000220                       ?_USBConfigureEndpoint 002B  
                         ??_USBDeviceAttach 00B3                           ?_BUTTON_IsPressed 002B  
                 __end_of_SYS_InterruptHigh 0082                          ??_BUTTON_IsPressed 00B3  
               ??_USBHIDCBSetReportComplete 002B                     __size_of_USBDeviceTasks 0136  
                                  __ptext11 0E3A                                    __ptext20 11C0  
                                  __ptext12 0CE4                                    __ptext21 1B10  
                                  __ptext13 1FAE                                    __ptext30 2198  
                                  __ptext22 1658                                    __ptext14 204A  
                                  __ptext31 13B0                                    __ptext23 157C  
                                  __ptext15 1EEC                                    __ptext40 180A  
                                  __ptext32 215A                                    __ptext24 207A  
                                  __ptext16 20CE                                    __ptext41 149C  
                                  __ptext33 2176                                    __ptext25 1A60  
                                  __ptext17 1C40                                    __ptext42 21AE  
                                  __ptext34 1DE6                                    __ptext26 10A0  
                                  __ptext18 1F32                                    __ptext43 18D8  
                                  __ptext35 19A6                                    __ptext27 08F2  
                                  __ptext19 1D5E                                    __ptext44 0000  
                                  __ptext36 1F72                                    __ptext28 1CD2  
                                  __ptext37 1BAC                                    __ptext29 213C  
                                  __ptext38 1E46                                    __ptext39 0F70  
                                  _keyboard 000F              __end_of_USBCtrlTrfSetupHandler 1DE6  
                             __size_of_main 0028                           ?_USBCtrlEPService 002B  
                        ??_USBCtrlEPService 0045                         _USBCtrlTrfInHandler 149C  
                               _inputReport 000240                         BUTTON_Enable@button 002B  
                                  _outPipes 0001                        _USBCtrlTrfOutHandler 1E46  
                                  int$flags 0055                   _USBCtrlEPAllowStatusStage 180A  
                    ??_USBTransferOnePacket 00B7                   _USBDeferStatusStagePacket 0023  
                                _INTCONbits 000FF2                        ?_USBCtrlTrfInHandler 002B  
                                  memcpy@d1 002B                                    memcpy@s1 002D  
             USBCtrlTrfTxService@byteToSend 002B                                    memset@p1 00B3  
              ??_USBHIDCBSetIdleRateHandler 002C                            ?_USBStallHandler 002B  
                  USBStdFeatureReqHandler@p 0043                                    intlevel2 0000  
                    __size_of_USBDeviceInit 0174     __end_of_USER_USB_CALLBACK_EVENT_HANDLER 1D5E  
  __size_of_USER_USB_CALLBACK_EVENT_HANDLER 008C           ??_USER_USB_CALLBACK_EVENT_HANDLER 003D  
          ?_USER_USB_CALLBACK_EVENT_HANDLER 0037             _USER_USB_CALLBACK_EVENT_HANDLER 1CD2  
              i2USBTransferOnePacket@handle 0030                   _USBHIDCBSetReportComplete 21AE  
                i2USBTransferOnePacket@data 002C                      ??_USBConfigureEndpoint 002C  
                     ?_USBCtrlTrfOutHandler 002B                      __size_of_BUTTON_Enable 0010  
                      __CFG_CPUDIV$NOCLKDIV 000000                         _USBCtrlTrfRxService 0F70  
                        _USBWakeFromSuspend 1FAE                     _USBStdFeatureReqHandler 08F2  
                       i2_SYSTEM_Initialize 213C                         _USBCtrlTrfTxService 18D8  
                __size_of_SYS_InterruptHigh 007A         __size_of_USBHIDCBSetIdleRateHandler 0012  
                       ?_USBWakeFromSuspend 002B                       ??_USBCtrlTrfInHandler 002C  
                     _USBAlternateInterface 0029                   i2USBTransferOnePacket@dir 002B  
                 i2USBTransferOnePacket@len 002E       USBHIDCBSetIdleRateHandler@newIdleRate 002B  
                       USBEnableEndpoint@ep 0036                             _endpoint_number 0026  
                      ?_USBCtrlTrfRxService 002B                        ?i2_SYSTEM_Initialize 002B  
                  ?_USBCtrlEPAllowDataStage 002B                        ?_USBCtrlTrfTxService 002B  
                                _SOFCounter 0019                          _shiftedKeyModifire 00A7  
              _USBStatusStageTimeoutCounter 008B                        ??_USBWakeFromSuspend 003F  
                USBTransferOnePacket@handle 00B8  APP_KeyboardTasks@needToSendNewReportPacket 00BD  
                                _USB_CD_Ptr 0307                   __size_of_APP_KeyboardInit 0060  
